
barrel_shift.elf:     file format elf32-littlearm


Disassembly of section .text:

00000000 <main>:
   0:	e3a01001 	mov	r1, #1
   4:	e1a02001 	mov	r2, r1
   8:	e3a03001 	mov	r3, #1
   c:	e1520003 	cmp	r2, r3
  10:	1a000018 	bne	78 <testfail>
  14:	e3a04001 	mov	r4, #1
  18:	e1a05084 	lsl	r5, r4, #1
  1c:	e3a06002 	mov	r6, #2
  20:	e1550006 	cmp	r5, r6
  24:	1a000013 	bne	78 <testfail>
  28:	e3a07001 	mov	r7, #1
  2c:	e1a08f81 	lsl	r8, r1, #31
  30:	e3a09102 	mov	r9, #-2147483648	; 0x80000000
  34:	e1580009 	cmp	r8, r9
  38:	1a00000e 	bne	78 <testfail>
  3c:	e3a01002 	mov	r1, #2
  40:	e1a020a1 	lsr	r2, r1, #1
  44:	e3a03001 	mov	r3, #1
  48:	e1520003 	cmp	r2, r3
  4c:	1a000009 	bne	78 <testfail>
  50:	e3a04cff 	mov	r4, #65280	; 0xff00
  54:	e1a05424 	lsr	r5, r4, #8
  58:	e35500ff 	cmp	r5, #255	; 0xff
  5c:	1a000005 	bne	78 <testfail>
  60:	e59f6030 	ldr	r6, [pc, #48]	; 98 <Data1>
  64:	e1a07466 	ror	r7, r6, #8
  68:	e59f802c 	ldr	r8, [pc, #44]	; 9c <Data2>
  6c:	e1570008 	cmp	r7, r8
  70:	1a000000 	bne	78 <testfail>
  74:	ea000002 	b	84 <testpass>

00000078 <testfail>:
  78:	e59fb014 	ldr	fp, [pc, #20]	; 94 <AdrTestStatus>
  7c:	e58ba000 	str	sl, [fp]
  80:	eafffffc 	b	78 <testfail>

00000084 <testpass>:
  84:	e59fb008 	ldr	fp, [pc, #8]	; 94 <AdrTestStatus>
  88:	e3a0a011 	mov	sl, #17
  8c:	e58ba000 	str	sl, [fp]
  90:	eafffffb 	b	84 <testpass>

00000094 <AdrTestStatus>:
  94:	f0000000 	.word	0xf0000000

00000098 <Data1>:
  98:	12345678 	.word	0x12345678

0000009c <Data2>:
  9c:	78123456 	.word	0x78123456
