
cache3.elf:     file format elf32-littlearm


Disassembly of section .text:

00000000 <main>:
   0:	e3e00000 	mvn	r0, #0
   4:	ee030f10 	mcr	15, 0, r0, cr3, cr0, {0}
   8:	e3a00001 	mov	r0, #1
   c:	ee020f10 	mcr	15, 0, r0, cr2, cr0, {0}
  10:	e1a00000 	nop			; (mov r0, r0)
  14:	e1a00000 	nop			; (mov r0, r0)
  18:	e59f2094 	ldr	r2, [pc, #148]	; b4 <AdrTestBase>
  1c:	e3a03000 	mov	r3, #0

00000020 <write_loop>:
  20:	e4823004 	str	r3, [r2], #4
  24:	e2833001 	add	r3, r3, #1
  28:	e3530b01 	cmp	r3, #1024	; 0x400
  2c:	1afffffb 	bne	20 <write_loop>
  30:	e59f207c 	ldr	r2, [pc, #124]	; b4 <AdrTestBase>
  34:	e3a03000 	mov	r3, #0
  38:	e3a00000 	mov	r0, #0

0000003c <read1_loop>:
  3c:	e4921004 	ldr	r1, [r2], #4
  40:	e0800001 	add	r0, r0, r1
  44:	e2833001 	add	r3, r3, #1
  48:	e3530b01 	cmp	r3, #1024	; 0x400
  4c:	1afffffa 	bne	3c <read1_loop>
  50:	e59f4060 	ldr	r4, [pc, #96]	; b8 <MagicNumber1024>
  54:	e1500004 	cmp	r0, r4
  58:	13a0a00a 	movne	sl, #10
  5c:	1a00000c 	bne	94 <testfail>
  60:	e59f204c 	ldr	r2, [pc, #76]	; b4 <AdrTestBase>
  64:	e3a03000 	mov	r3, #0
  68:	e3a00000 	mov	r0, #0

0000006c <read2_loop>:
  6c:	e4921004 	ldr	r1, [r2], #4
  70:	e0800001 	add	r0, r0, r1
  74:	e2833001 	add	r3, r3, #1
  78:	e3530b01 	cmp	r3, #1024	; 0x400
  7c:	1afffffa 	bne	6c <read2_loop>
  80:	e59f4030 	ldr	r4, [pc, #48]	; b8 <MagicNumber1024>
  84:	e1500004 	cmp	r0, r4
  88:	13a0a00a 	movne	sl, #10
  8c:	1a000000 	bne	94 <testfail>
  90:	ea000002 	b	a0 <testpass>

00000094 <testfail>:
  94:	e59fb014 	ldr	fp, [pc, #20]	; b0 <AdrTestStatus>
  98:	e58ba000 	str	sl, [fp]
  9c:	eafffffc 	b	94 <testfail>

000000a0 <testpass>:
  a0:	e59fb008 	ldr	fp, [pc, #8]	; b0 <AdrTestStatus>
  a4:	e3a0a011 	mov	sl, #17
  a8:	e58ba000 	str	sl, [fp]
  ac:	eafffffb 	b	a0 <testpass>

000000b0 <AdrTestStatus>:
  b0:	f0000000 	.word	0xf0000000

000000b4 <AdrTestBase>:
  b4:	00020000 	.word	0x00020000

000000b8 <MagicNumber1024>:
  b8:	0007fe00 	.word	0x0007fe00

000000bc <MagicNumber2048>:
  bc:	001ffc00 	.word	0x001ffc00
