
cache1.elf:     file format elf32-littlearm


Disassembly of section .text:

00000000 <loop-0x24>:
   0:	e3e00000 	mvn	r0, #0
   4:	ee030f10 	mcr	15, 0, r0, cr3, cr0, {0}
   8:	e3a00001 	mov	r0, #1
   c:	ee020f10 	mcr	15, 0, r0, cr2, cr0, {0}
  10:	e1a00000 	nop			; (mov r0, r0)
  14:	e1a00000 	nop			; (mov r0, r0)
  18:	e3a0300a 	mov	r3, #10
  1c:	e3a04000 	mov	r4, #0
  20:	e3a05000 	mov	r5, #0

00000024 <loop>:
  24:	e2844011 	add	r4, r4, #17
  28:	e2855009 	add	r5, r5, #9
  2c:	e2533001 	subs	r3, r3, #1
  30:	1afffffb 	bne	24 <loop>

00000034 <continue>:
  34:	e3a08004 	mov	r8, #4

00000038 <loop2>:
  38:	e3a06000 	mov	r6, #0
  3c:	e2866001 	add	r6, r6, #1
  40:	e2866001 	add	r6, r6, #1
  44:	e2866001 	add	r6, r6, #1
  48:	e2866001 	add	r6, r6, #1
  4c:	e2866001 	add	r6, r6, #1
  50:	e2866001 	add	r6, r6, #1
  54:	e2866001 	add	r6, r6, #1
  58:	e2866001 	add	r6, r6, #1
  5c:	e2866001 	add	r6, r6, #1
  60:	e2866001 	add	r6, r6, #1
  64:	e2866002 	add	r6, r6, #2
  68:	e2866002 	add	r6, r6, #2
  6c:	e2866002 	add	r6, r6, #2
  70:	e2866002 	add	r6, r6, #2
  74:	e2866002 	add	r6, r6, #2
  78:	e2866002 	add	r6, r6, #2
  7c:	e2866002 	add	r6, r6, #2
  80:	e2866002 	add	r6, r6, #2
  84:	e2866002 	add	r6, r6, #2
  88:	e2866002 	add	r6, r6, #2
  8c:	e2866003 	add	r6, r6, #3
  90:	e2866003 	add	r6, r6, #3
  94:	e2866003 	add	r6, r6, #3
  98:	e2866003 	add	r6, r6, #3
  9c:	e2866003 	add	r6, r6, #3
  a0:	e2866003 	add	r6, r6, #3
  a4:	e2866003 	add	r6, r6, #3
  a8:	e2866003 	add	r6, r6, #3
  ac:	e2866003 	add	r6, r6, #3
  b0:	e2866003 	add	r6, r6, #3
  b4:	e2866004 	add	r6, r6, #4
  b8:	e2866004 	add	r6, r6, #4
  bc:	e2866004 	add	r6, r6, #4
  c0:	e2866004 	add	r6, r6, #4
  c4:	e2866004 	add	r6, r6, #4
  c8:	e2866004 	add	r6, r6, #4
  cc:	e2866004 	add	r6, r6, #4
  d0:	e2866004 	add	r6, r6, #4
  d4:	e2866004 	add	r6, r6, #4
  d8:	e2866004 	add	r6, r6, #4
  dc:	e2866005 	add	r6, r6, #5
  e0:	e2866005 	add	r6, r6, #5
  e4:	e2866005 	add	r6, r6, #5
  e8:	e2866005 	add	r6, r6, #5
  ec:	e2866005 	add	r6, r6, #5
  f0:	e2866005 	add	r6, r6, #5
  f4:	e2866005 	add	r6, r6, #5
  f8:	e2866005 	add	r6, r6, #5
  fc:	e2866005 	add	r6, r6, #5
 100:	e2866005 	add	r6, r6, #5
 104:	e2866006 	add	r6, r6, #6
 108:	e2866006 	add	r6, r6, #6
 10c:	e2866006 	add	r6, r6, #6
 110:	e2866006 	add	r6, r6, #6
 114:	e2866006 	add	r6, r6, #6
 118:	e2866006 	add	r6, r6, #6
 11c:	e2866006 	add	r6, r6, #6
 120:	e2866006 	add	r6, r6, #6
 124:	e2866006 	add	r6, r6, #6
 128:	e2866006 	add	r6, r6, #6
 12c:	e2866007 	add	r6, r6, #7
 130:	e2866007 	add	r6, r6, #7
 134:	e2866007 	add	r6, r6, #7
 138:	e2866007 	add	r6, r6, #7
 13c:	e2866007 	add	r6, r6, #7
 140:	e2866007 	add	r6, r6, #7
 144:	e2866007 	add	r6, r6, #7
 148:	e2866007 	add	r6, r6, #7
 14c:	e2866007 	add	r6, r6, #7
 150:	e2866007 	add	r6, r6, #7
 154:	e2866008 	add	r6, r6, #8
 158:	e2866008 	add	r6, r6, #8
 15c:	e2866008 	add	r6, r6, #8
 160:	e2866008 	add	r6, r6, #8
 164:	e2866008 	add	r6, r6, #8
 168:	e2866008 	add	r6, r6, #8
 16c:	e2866008 	add	r6, r6, #8
 170:	e2866008 	add	r6, r6, #8
 174:	e2866008 	add	r6, r6, #8
 178:	e2866008 	add	r6, r6, #8
 17c:	e2866009 	add	r6, r6, #9
 180:	e2866009 	add	r6, r6, #9
 184:	e2866009 	add	r6, r6, #9
 188:	e2866009 	add	r6, r6, #9
 18c:	e2866009 	add	r6, r6, #9
 190:	e2866009 	add	r6, r6, #9
 194:	e2866009 	add	r6, r6, #9
 198:	e2866009 	add	r6, r6, #9
 19c:	e2866009 	add	r6, r6, #9
 1a0:	e2866009 	add	r6, r6, #9
 1a4:	e286600a 	add	r6, r6, #10
 1a8:	e286600a 	add	r6, r6, #10
 1ac:	e286600a 	add	r6, r6, #10
 1b0:	e286600a 	add	r6, r6, #10
 1b4:	e286600a 	add	r6, r6, #10
 1b8:	e286600a 	add	r6, r6, #10
 1bc:	e286600a 	add	r6, r6, #10
 1c0:	e286600a 	add	r6, r6, #10
 1c4:	e286600a 	add	r6, r6, #10
 1c8:	e286600a 	add	r6, r6, #10
 1cc:	e2866001 	add	r6, r6, #1
 1d0:	e2866001 	add	r6, r6, #1
 1d4:	e2866001 	add	r6, r6, #1
 1d8:	e2866001 	add	r6, r6, #1
 1dc:	e2866001 	add	r6, r6, #1
 1e0:	e2866001 	add	r6, r6, #1
 1e4:	e2866001 	add	r6, r6, #1
 1e8:	e2866001 	add	r6, r6, #1
 1ec:	e2866001 	add	r6, r6, #1
 1f0:	e2866001 	add	r6, r6, #1
 1f4:	e2866002 	add	r6, r6, #2
 1f8:	e2866002 	add	r6, r6, #2
 1fc:	e2866002 	add	r6, r6, #2
 200:	e2866002 	add	r6, r6, #2
 204:	e2866002 	add	r6, r6, #2
 208:	e2866002 	add	r6, r6, #2
 20c:	e2866002 	add	r6, r6, #2
 210:	e2866002 	add	r6, r6, #2
 214:	e2866002 	add	r6, r6, #2
 218:	e2866002 	add	r6, r6, #2
 21c:	e2866003 	add	r6, r6, #3
 220:	e2866003 	add	r6, r6, #3
 224:	e2866003 	add	r6, r6, #3
 228:	e2866003 	add	r6, r6, #3
 22c:	e2866003 	add	r6, r6, #3
 230:	e2866003 	add	r6, r6, #3
 234:	e2866003 	add	r6, r6, #3
 238:	e2866003 	add	r6, r6, #3
 23c:	e2866003 	add	r6, r6, #3
 240:	e2866003 	add	r6, r6, #3
 244:	e2866004 	add	r6, r6, #4
 248:	e2866004 	add	r6, r6, #4
 24c:	e2866004 	add	r6, r6, #4
 250:	e2866004 	add	r6, r6, #4
 254:	e2866004 	add	r6, r6, #4
 258:	e2866004 	add	r6, r6, #4
 25c:	e2866004 	add	r6, r6, #4
 260:	e2866004 	add	r6, r6, #4
 264:	e2866004 	add	r6, r6, #4
 268:	e2866004 	add	r6, r6, #4
 26c:	e2866005 	add	r6, r6, #5
 270:	e2866005 	add	r6, r6, #5
 274:	e2866005 	add	r6, r6, #5
 278:	e2866005 	add	r6, r6, #5
 27c:	e2866005 	add	r6, r6, #5
 280:	e2866005 	add	r6, r6, #5
 284:	e2866005 	add	r6, r6, #5
 288:	e2866005 	add	r6, r6, #5
 28c:	e2866005 	add	r6, r6, #5
 290:	e2866005 	add	r6, r6, #5
 294:	e2866006 	add	r6, r6, #6
 298:	e2866006 	add	r6, r6, #6
 29c:	e2866006 	add	r6, r6, #6
 2a0:	e2866006 	add	r6, r6, #6
 2a4:	e2866006 	add	r6, r6, #6
 2a8:	e2866006 	add	r6, r6, #6
 2ac:	e2866006 	add	r6, r6, #6
 2b0:	e2866006 	add	r6, r6, #6
 2b4:	e2866006 	add	r6, r6, #6
 2b8:	e2866006 	add	r6, r6, #6
 2bc:	e2866007 	add	r6, r6, #7
 2c0:	e2866007 	add	r6, r6, #7
 2c4:	e2866007 	add	r6, r6, #7
 2c8:	e2866007 	add	r6, r6, #7
 2cc:	e2866007 	add	r6, r6, #7
 2d0:	e2866007 	add	r6, r6, #7
 2d4:	e2866007 	add	r6, r6, #7
 2d8:	e2866007 	add	r6, r6, #7
 2dc:	e2866007 	add	r6, r6, #7
 2e0:	e2866007 	add	r6, r6, #7
 2e4:	e2866008 	add	r6, r6, #8
 2e8:	e2866008 	add	r6, r6, #8
 2ec:	e2866008 	add	r6, r6, #8
 2f0:	e2866008 	add	r6, r6, #8
 2f4:	e2866008 	add	r6, r6, #8
 2f8:	e2866008 	add	r6, r6, #8
 2fc:	e2866008 	add	r6, r6, #8
 300:	e2866008 	add	r6, r6, #8
 304:	e2866008 	add	r6, r6, #8
 308:	e2866008 	add	r6, r6, #8
 30c:	e2866009 	add	r6, r6, #9
 310:	e2866009 	add	r6, r6, #9
 314:	e2866009 	add	r6, r6, #9
 318:	e2866009 	add	r6, r6, #9
 31c:	e2866009 	add	r6, r6, #9
 320:	e2866009 	add	r6, r6, #9
 324:	e2866009 	add	r6, r6, #9
 328:	e2866009 	add	r6, r6, #9
 32c:	e2866009 	add	r6, r6, #9
 330:	e2866009 	add	r6, r6, #9
 334:	e286600a 	add	r6, r6, #10
 338:	e286600a 	add	r6, r6, #10
 33c:	e286600a 	add	r6, r6, #10
 340:	e286600a 	add	r6, r6, #10
 344:	e286600a 	add	r6, r6, #10
 348:	e286600a 	add	r6, r6, #10
 34c:	e286600a 	add	r6, r6, #10
 350:	e286600a 	add	r6, r6, #10
 354:	e286600a 	add	r6, r6, #10
 358:	e286600a 	add	r6, r6, #10
 35c:	e2866001 	add	r6, r6, #1
 360:	e2866001 	add	r6, r6, #1
 364:	e2866001 	add	r6, r6, #1
 368:	e2866001 	add	r6, r6, #1
 36c:	e2866001 	add	r6, r6, #1
 370:	e2866001 	add	r6, r6, #1
 374:	e2866001 	add	r6, r6, #1
 378:	e2866001 	add	r6, r6, #1
 37c:	e2866001 	add	r6, r6, #1
 380:	e2866001 	add	r6, r6, #1
 384:	e2866002 	add	r6, r6, #2
 388:	e2866002 	add	r6, r6, #2
 38c:	e2866002 	add	r6, r6, #2
 390:	e2866002 	add	r6, r6, #2
 394:	e2866002 	add	r6, r6, #2
 398:	e2866002 	add	r6, r6, #2
 39c:	e2866002 	add	r6, r6, #2
 3a0:	e2866002 	add	r6, r6, #2
 3a4:	e2866002 	add	r6, r6, #2
 3a8:	e2866002 	add	r6, r6, #2
 3ac:	e2866003 	add	r6, r6, #3
 3b0:	e2866003 	add	r6, r6, #3
 3b4:	e2866003 	add	r6, r6, #3
 3b8:	e2866003 	add	r6, r6, #3
 3bc:	e2866003 	add	r6, r6, #3
 3c0:	e2866003 	add	r6, r6, #3
 3c4:	e2866003 	add	r6, r6, #3
 3c8:	e2866003 	add	r6, r6, #3
 3cc:	e2866003 	add	r6, r6, #3
 3d0:	e2866003 	add	r6, r6, #3
 3d4:	e2866004 	add	r6, r6, #4
 3d8:	e2866004 	add	r6, r6, #4
 3dc:	e2866004 	add	r6, r6, #4
 3e0:	e2866004 	add	r6, r6, #4
 3e4:	e2866004 	add	r6, r6, #4
 3e8:	e2866004 	add	r6, r6, #4
 3ec:	e2866004 	add	r6, r6, #4
 3f0:	e2866004 	add	r6, r6, #4
 3f4:	e2866004 	add	r6, r6, #4
 3f8:	e2866004 	add	r6, r6, #4
 3fc:	e2866005 	add	r6, r6, #5
 400:	e2866005 	add	r6, r6, #5
 404:	e2866005 	add	r6, r6, #5
 408:	e2866005 	add	r6, r6, #5
 40c:	e2866005 	add	r6, r6, #5
 410:	e2866005 	add	r6, r6, #5
 414:	e2866005 	add	r6, r6, #5
 418:	e2866005 	add	r6, r6, #5
 41c:	e2866005 	add	r6, r6, #5
 420:	e2866005 	add	r6, r6, #5
 424:	e2866006 	add	r6, r6, #6
 428:	e2866006 	add	r6, r6, #6
 42c:	e2866006 	add	r6, r6, #6
 430:	e2866006 	add	r6, r6, #6
 434:	e2866006 	add	r6, r6, #6
 438:	e2866006 	add	r6, r6, #6
 43c:	e2866006 	add	r6, r6, #6
 440:	e2866006 	add	r6, r6, #6
 444:	e2866006 	add	r6, r6, #6
 448:	e2866006 	add	r6, r6, #6
 44c:	e2866007 	add	r6, r6, #7
 450:	e2866007 	add	r6, r6, #7
 454:	e2866007 	add	r6, r6, #7
 458:	e2866007 	add	r6, r6, #7
 45c:	e2866007 	add	r6, r6, #7
 460:	e2866007 	add	r6, r6, #7
 464:	e2866007 	add	r6, r6, #7
 468:	e2866007 	add	r6, r6, #7
 46c:	e2866007 	add	r6, r6, #7
 470:	e2866007 	add	r6, r6, #7
 474:	e2866008 	add	r6, r6, #8
 478:	e2866008 	add	r6, r6, #8
 47c:	e2866008 	add	r6, r6, #8
 480:	e2866008 	add	r6, r6, #8
 484:	e2866008 	add	r6, r6, #8
 488:	e2866008 	add	r6, r6, #8
 48c:	e2866008 	add	r6, r6, #8
 490:	e2866008 	add	r6, r6, #8
 494:	e2866008 	add	r6, r6, #8
 498:	e2866008 	add	r6, r6, #8
 49c:	e2866009 	add	r6, r6, #9
 4a0:	e2866009 	add	r6, r6, #9
 4a4:	e2866009 	add	r6, r6, #9
 4a8:	e2866009 	add	r6, r6, #9
 4ac:	e2866009 	add	r6, r6, #9
 4b0:	e2866009 	add	r6, r6, #9
 4b4:	e2866009 	add	r6, r6, #9
 4b8:	e2866009 	add	r6, r6, #9
 4bc:	e2866009 	add	r6, r6, #9
 4c0:	e2866009 	add	r6, r6, #9
 4c4:	e286600a 	add	r6, r6, #10
 4c8:	e286600a 	add	r6, r6, #10
 4cc:	e286600a 	add	r6, r6, #10
 4d0:	e286600a 	add	r6, r6, #10
 4d4:	e286600a 	add	r6, r6, #10
 4d8:	e286600a 	add	r6, r6, #10
 4dc:	e286600a 	add	r6, r6, #10
 4e0:	e286600a 	add	r6, r6, #10
 4e4:	e286600a 	add	r6, r6, #10
 4e8:	e286600a 	add	r6, r6, #10
 4ec:	e2866001 	add	r6, r6, #1
 4f0:	e2866001 	add	r6, r6, #1
 4f4:	e2866001 	add	r6, r6, #1
 4f8:	e2866001 	add	r6, r6, #1
 4fc:	e2866001 	add	r6, r6, #1
 500:	e2866001 	add	r6, r6, #1
 504:	e2866001 	add	r6, r6, #1
 508:	e2866001 	add	r6, r6, #1
 50c:	e2866001 	add	r6, r6, #1
 510:	e2866001 	add	r6, r6, #1
 514:	e2866002 	add	r6, r6, #2
 518:	e2866002 	add	r6, r6, #2
 51c:	e2866002 	add	r6, r6, #2
 520:	e2866002 	add	r6, r6, #2
 524:	e2866002 	add	r6, r6, #2
 528:	e2866002 	add	r6, r6, #2
 52c:	e2866002 	add	r6, r6, #2
 530:	e2866002 	add	r6, r6, #2
 534:	e2866002 	add	r6, r6, #2
 538:	e2866002 	add	r6, r6, #2
 53c:	e2866003 	add	r6, r6, #3
 540:	e2866003 	add	r6, r6, #3
 544:	e2866003 	add	r6, r6, #3
 548:	e2866003 	add	r6, r6, #3
 54c:	e2866003 	add	r6, r6, #3
 550:	e2866003 	add	r6, r6, #3
 554:	e2866003 	add	r6, r6, #3
 558:	e2866003 	add	r6, r6, #3
 55c:	e2866003 	add	r6, r6, #3
 560:	e2866003 	add	r6, r6, #3
 564:	e2866004 	add	r6, r6, #4
 568:	e2866004 	add	r6, r6, #4
 56c:	e2866004 	add	r6, r6, #4
 570:	e2866004 	add	r6, r6, #4
 574:	e2866004 	add	r6, r6, #4
 578:	e2866004 	add	r6, r6, #4
 57c:	e2866004 	add	r6, r6, #4
 580:	e2866004 	add	r6, r6, #4
 584:	e2866004 	add	r6, r6, #4
 588:	e2866004 	add	r6, r6, #4
 58c:	e2866005 	add	r6, r6, #5
 590:	e2866005 	add	r6, r6, #5
 594:	e2866005 	add	r6, r6, #5
 598:	e2866005 	add	r6, r6, #5
 59c:	e2866005 	add	r6, r6, #5
 5a0:	e2866005 	add	r6, r6, #5
 5a4:	e2866005 	add	r6, r6, #5
 5a8:	e2866005 	add	r6, r6, #5
 5ac:	e2866005 	add	r6, r6, #5
 5b0:	e2866005 	add	r6, r6, #5
 5b4:	e2866006 	add	r6, r6, #6
 5b8:	e2866006 	add	r6, r6, #6
 5bc:	e2866006 	add	r6, r6, #6
 5c0:	e2866006 	add	r6, r6, #6
 5c4:	e2866006 	add	r6, r6, #6
 5c8:	e2866006 	add	r6, r6, #6
 5cc:	e2866006 	add	r6, r6, #6
 5d0:	e2866006 	add	r6, r6, #6
 5d4:	e2866006 	add	r6, r6, #6
 5d8:	e2866006 	add	r6, r6, #6
 5dc:	e2866007 	add	r6, r6, #7
 5e0:	e2866007 	add	r6, r6, #7
 5e4:	e2866007 	add	r6, r6, #7
 5e8:	e2866007 	add	r6, r6, #7
 5ec:	e2866007 	add	r6, r6, #7
 5f0:	e2866007 	add	r6, r6, #7
 5f4:	e2866007 	add	r6, r6, #7
 5f8:	e2866007 	add	r6, r6, #7
 5fc:	e2866007 	add	r6, r6, #7
 600:	e2866007 	add	r6, r6, #7
 604:	e2866008 	add	r6, r6, #8
 608:	e2866008 	add	r6, r6, #8
 60c:	e2866008 	add	r6, r6, #8
 610:	e2866008 	add	r6, r6, #8
 614:	e2866008 	add	r6, r6, #8
 618:	e2866008 	add	r6, r6, #8
 61c:	e2866008 	add	r6, r6, #8
 620:	e2866008 	add	r6, r6, #8
 624:	e2866008 	add	r6, r6, #8
 628:	e2866008 	add	r6, r6, #8
 62c:	e2866009 	add	r6, r6, #9
 630:	e2866009 	add	r6, r6, #9
 634:	e2866009 	add	r6, r6, #9
 638:	e2866009 	add	r6, r6, #9
 63c:	e2866009 	add	r6, r6, #9
 640:	e2866009 	add	r6, r6, #9
 644:	e2866009 	add	r6, r6, #9
 648:	e2866009 	add	r6, r6, #9
 64c:	e2866009 	add	r6, r6, #9
 650:	e2866009 	add	r6, r6, #9
 654:	e286600a 	add	r6, r6, #10
 658:	e286600a 	add	r6, r6, #10
 65c:	e286600a 	add	r6, r6, #10
 660:	e286600a 	add	r6, r6, #10
 664:	e286600a 	add	r6, r6, #10
 668:	e286600a 	add	r6, r6, #10
 66c:	e286600a 	add	r6, r6, #10
 670:	e286600a 	add	r6, r6, #10
 674:	e286600a 	add	r6, r6, #10
 678:	e286600a 	add	r6, r6, #10
 67c:	e2866001 	add	r6, r6, #1
 680:	e2866001 	add	r6, r6, #1
 684:	e2866001 	add	r6, r6, #1
 688:	e2866001 	add	r6, r6, #1
 68c:	e2866001 	add	r6, r6, #1
 690:	e2866001 	add	r6, r6, #1
 694:	e2866001 	add	r6, r6, #1
 698:	e2866001 	add	r6, r6, #1
 69c:	e2866001 	add	r6, r6, #1
 6a0:	e2866001 	add	r6, r6, #1
 6a4:	e2866002 	add	r6, r6, #2
 6a8:	e2866002 	add	r6, r6, #2
 6ac:	e2866002 	add	r6, r6, #2
 6b0:	e2866002 	add	r6, r6, #2
 6b4:	e2866002 	add	r6, r6, #2
 6b8:	e2866002 	add	r6, r6, #2
 6bc:	e2866002 	add	r6, r6, #2
 6c0:	e2866002 	add	r6, r6, #2
 6c4:	e2866002 	add	r6, r6, #2
 6c8:	e2866002 	add	r6, r6, #2
 6cc:	e2866003 	add	r6, r6, #3
 6d0:	e2866003 	add	r6, r6, #3
 6d4:	e2866003 	add	r6, r6, #3
 6d8:	e2866003 	add	r6, r6, #3
 6dc:	e2866003 	add	r6, r6, #3
 6e0:	e2866003 	add	r6, r6, #3
 6e4:	e2866003 	add	r6, r6, #3
 6e8:	e2866003 	add	r6, r6, #3
 6ec:	e2866003 	add	r6, r6, #3
 6f0:	e2866003 	add	r6, r6, #3
 6f4:	e2866004 	add	r6, r6, #4
 6f8:	e2866004 	add	r6, r6, #4
 6fc:	e2866004 	add	r6, r6, #4
 700:	e2866004 	add	r6, r6, #4
 704:	e2866004 	add	r6, r6, #4
 708:	e2866004 	add	r6, r6, #4
 70c:	e2866004 	add	r6, r6, #4
 710:	e2866004 	add	r6, r6, #4
 714:	e2866004 	add	r6, r6, #4
 718:	e2866004 	add	r6, r6, #4
 71c:	e2866005 	add	r6, r6, #5
 720:	e2866005 	add	r6, r6, #5
 724:	e2866005 	add	r6, r6, #5
 728:	e2866005 	add	r6, r6, #5
 72c:	e2866005 	add	r6, r6, #5
 730:	e2866005 	add	r6, r6, #5
 734:	e2866005 	add	r6, r6, #5
 738:	e2866005 	add	r6, r6, #5
 73c:	e2866005 	add	r6, r6, #5
 740:	e2866005 	add	r6, r6, #5
 744:	e2866006 	add	r6, r6, #6
 748:	e2866006 	add	r6, r6, #6
 74c:	e2866006 	add	r6, r6, #6
 750:	e2866006 	add	r6, r6, #6
 754:	e2866006 	add	r6, r6, #6
 758:	e2866006 	add	r6, r6, #6
 75c:	e2866006 	add	r6, r6, #6
 760:	e2866006 	add	r6, r6, #6
 764:	e2866006 	add	r6, r6, #6
 768:	e2866006 	add	r6, r6, #6
 76c:	e2866007 	add	r6, r6, #7
 770:	e2866007 	add	r6, r6, #7
 774:	e2866007 	add	r6, r6, #7
 778:	e2866007 	add	r6, r6, #7
 77c:	e2866007 	add	r6, r6, #7
 780:	e2866007 	add	r6, r6, #7
 784:	e2866007 	add	r6, r6, #7
 788:	e2866007 	add	r6, r6, #7
 78c:	e2866007 	add	r6, r6, #7
 790:	e2866007 	add	r6, r6, #7
 794:	e2866008 	add	r6, r6, #8
 798:	e2866008 	add	r6, r6, #8
 79c:	e2866008 	add	r6, r6, #8
 7a0:	e2866008 	add	r6, r6, #8
 7a4:	e2866008 	add	r6, r6, #8
 7a8:	e2866008 	add	r6, r6, #8
 7ac:	e2866008 	add	r6, r6, #8
 7b0:	e2866008 	add	r6, r6, #8
 7b4:	e2866008 	add	r6, r6, #8
 7b8:	e2866008 	add	r6, r6, #8
 7bc:	e2866009 	add	r6, r6, #9
 7c0:	e2866009 	add	r6, r6, #9
 7c4:	e2866009 	add	r6, r6, #9
 7c8:	e2866009 	add	r6, r6, #9
 7cc:	e2866009 	add	r6, r6, #9
 7d0:	e2866009 	add	r6, r6, #9
 7d4:	e2866009 	add	r6, r6, #9
 7d8:	e2866009 	add	r6, r6, #9
 7dc:	e2866009 	add	r6, r6, #9
 7e0:	e2866009 	add	r6, r6, #9
 7e4:	e286600a 	add	r6, r6, #10
 7e8:	e286600a 	add	r6, r6, #10
 7ec:	e286600a 	add	r6, r6, #10
 7f0:	e286600a 	add	r6, r6, #10
 7f4:	e286600a 	add	r6, r6, #10
 7f8:	e286600a 	add	r6, r6, #10
 7fc:	e286600a 	add	r6, r6, #10
 800:	e286600a 	add	r6, r6, #10
 804:	e286600a 	add	r6, r6, #10
 808:	e286600a 	add	r6, r6, #10
 80c:	e2866001 	add	r6, r6, #1
 810:	e2866001 	add	r6, r6, #1
 814:	e2866001 	add	r6, r6, #1
 818:	e2866001 	add	r6, r6, #1
 81c:	e2866001 	add	r6, r6, #1
 820:	e2866001 	add	r6, r6, #1
 824:	e2866001 	add	r6, r6, #1
 828:	e2866001 	add	r6, r6, #1
 82c:	e2866001 	add	r6, r6, #1
 830:	e2866001 	add	r6, r6, #1
 834:	e2866002 	add	r6, r6, #2
 838:	e2866002 	add	r6, r6, #2
 83c:	e2866002 	add	r6, r6, #2
 840:	e2866002 	add	r6, r6, #2
 844:	e2866002 	add	r6, r6, #2
 848:	e2866002 	add	r6, r6, #2
 84c:	e2866002 	add	r6, r6, #2
 850:	e2866002 	add	r6, r6, #2
 854:	e2866002 	add	r6, r6, #2
 858:	e2866002 	add	r6, r6, #2
 85c:	e2866003 	add	r6, r6, #3
 860:	e2866003 	add	r6, r6, #3
 864:	e2866003 	add	r6, r6, #3
 868:	e2866003 	add	r6, r6, #3
 86c:	e2866003 	add	r6, r6, #3
 870:	e2866003 	add	r6, r6, #3
 874:	e2866003 	add	r6, r6, #3
 878:	e2866003 	add	r6, r6, #3
 87c:	e2866003 	add	r6, r6, #3
 880:	e2866003 	add	r6, r6, #3
 884:	e2866004 	add	r6, r6, #4
 888:	e2866004 	add	r6, r6, #4
 88c:	e2866004 	add	r6, r6, #4
 890:	e2866004 	add	r6, r6, #4
 894:	e2866004 	add	r6, r6, #4
 898:	e2866004 	add	r6, r6, #4
 89c:	e2866004 	add	r6, r6, #4
 8a0:	e2866004 	add	r6, r6, #4
 8a4:	e2866004 	add	r6, r6, #4
 8a8:	e2866004 	add	r6, r6, #4
 8ac:	e2866005 	add	r6, r6, #5
 8b0:	e2866005 	add	r6, r6, #5
 8b4:	e2866005 	add	r6, r6, #5
 8b8:	e2866005 	add	r6, r6, #5
 8bc:	e2866005 	add	r6, r6, #5
 8c0:	e2866005 	add	r6, r6, #5
 8c4:	e2866005 	add	r6, r6, #5
 8c8:	e2866005 	add	r6, r6, #5
 8cc:	e2866005 	add	r6, r6, #5
 8d0:	e2866005 	add	r6, r6, #5
 8d4:	e2866006 	add	r6, r6, #6
 8d8:	e2866006 	add	r6, r6, #6
 8dc:	e2866006 	add	r6, r6, #6
 8e0:	e2866006 	add	r6, r6, #6
 8e4:	e2866006 	add	r6, r6, #6
 8e8:	e2866006 	add	r6, r6, #6
 8ec:	e2866006 	add	r6, r6, #6
 8f0:	e2866006 	add	r6, r6, #6
 8f4:	e2866006 	add	r6, r6, #6
 8f8:	e2866006 	add	r6, r6, #6
 8fc:	e2866007 	add	r6, r6, #7
 900:	e2866007 	add	r6, r6, #7
 904:	e2866007 	add	r6, r6, #7
 908:	e2866007 	add	r6, r6, #7
 90c:	e2866007 	add	r6, r6, #7
 910:	e2866007 	add	r6, r6, #7
 914:	e2866007 	add	r6, r6, #7
 918:	e2866007 	add	r6, r6, #7
 91c:	e2866007 	add	r6, r6, #7
 920:	e2866007 	add	r6, r6, #7
 924:	e2866008 	add	r6, r6, #8
 928:	e2866008 	add	r6, r6, #8
 92c:	e2866008 	add	r6, r6, #8
 930:	e2866008 	add	r6, r6, #8
 934:	e2866008 	add	r6, r6, #8
 938:	e2866008 	add	r6, r6, #8
 93c:	e2866008 	add	r6, r6, #8
 940:	e2866008 	add	r6, r6, #8
 944:	e2866008 	add	r6, r6, #8
 948:	e2866008 	add	r6, r6, #8
 94c:	e1a00000 	nop			; (mov r0, r0)
 950:	e1a00000 	nop			; (mov r0, r0)
 954:	e1a00000 	nop			; (mov r0, r0)
 958:	e1a00000 	nop			; (mov r0, r0)
 95c:	e1a00000 	nop			; (mov r0, r0)
 960:	e1a00000 	nop			; (mov r0, r0)
 964:	e1a00000 	nop			; (mov r0, r0)
 968:	e1a00000 	nop			; (mov r0, r0)
 96c:	e1a00000 	nop			; (mov r0, r0)
 970:	e1a00000 	nop			; (mov r0, r0)
 974:	e1a00000 	nop			; (mov r0, r0)
 978:	e1a00000 	nop			; (mov r0, r0)
 97c:	e1a00000 	nop			; (mov r0, r0)
 980:	e1a00000 	nop			; (mov r0, r0)
 984:	e1a00000 	nop			; (mov r0, r0)
 988:	e1a00000 	nop			; (mov r0, r0)
 98c:	e1a00000 	nop			; (mov r0, r0)
 990:	e1a00000 	nop			; (mov r0, r0)
 994:	e1a00000 	nop			; (mov r0, r0)
 998:	e1a00000 	nop			; (mov r0, r0)
 99c:	e1a00000 	nop			; (mov r0, r0)
 9a0:	e1a00000 	nop			; (mov r0, r0)
 9a4:	e1a00000 	nop			; (mov r0, r0)
 9a8:	e1a00000 	nop			; (mov r0, r0)
 9ac:	e1a00000 	nop			; (mov r0, r0)
 9b0:	e1a00000 	nop			; (mov r0, r0)
 9b4:	e1a00000 	nop			; (mov r0, r0)
 9b8:	e1a00000 	nop			; (mov r0, r0)
 9bc:	e1a00000 	nop			; (mov r0, r0)
 9c0:	e1a00000 	nop			; (mov r0, r0)
 9c4:	e2866009 	add	r6, r6, #9
 9c8:	e2866009 	add	r6, r6, #9
 9cc:	e2866009 	add	r6, r6, #9
 9d0:	e2866009 	add	r6, r6, #9
 9d4:	e2866009 	add	r6, r6, #9
 9d8:	e2866009 	add	r6, r6, #9
 9dc:	e2866009 	add	r6, r6, #9
 9e0:	e2866009 	add	r6, r6, #9
 9e4:	e2866009 	add	r6, r6, #9
 9e8:	e2866009 	add	r6, r6, #9
 9ec:	e286600a 	add	r6, r6, #10
 9f0:	e286600a 	add	r6, r6, #10
 9f4:	e286600a 	add	r6, r6, #10
 9f8:	e286600a 	add	r6, r6, #10
 9fc:	e286600a 	add	r6, r6, #10
 a00:	e286600a 	add	r6, r6, #10
 a04:	e286600a 	add	r6, r6, #10
 a08:	e286600a 	add	r6, r6, #10
 a0c:	e286600a 	add	r6, r6, #10
 a10:	e286600a 	add	r6, r6, #10
 a14:	e59f7034 	ldr	r7, [pc, #52]	; a50 <Result>
 a18:	e1560007 	cmp	r6, r7
 a1c:	13a0a064 	movne	sl, #100	; 0x64
 a20:	1a000002 	bne	a30 <testfail>
 a24:	e2588001 	subs	r8, r8, #1
 a28:	1afffd82 	bne	38 <loop2>
 a2c:	ea000002 	b	a3c <testpass>

00000a30 <testfail>:
 a30:	e59fb014 	ldr	fp, [pc, #20]	; a4c <AdrTestStatus>
 a34:	e58ba000 	str	sl, [fp]
 a38:	eafffffc 	b	a30 <testfail>

00000a3c <testpass>:
 a3c:	e59fb008 	ldr	fp, [pc, #8]	; a4c <AdrTestStatus>
 a40:	e3a0a011 	mov	sl, #17
 a44:	e58ba000 	str	sl, [fp]
 a48:	eafffffb 	b	a3c <testpass>

00000a4c <AdrTestStatus>:
 a4c:	f0000000 	.word	0xf0000000

00000a50 <Result>:
 a50:	00000ce4 	.word	0x00000ce4
