
boot-loader.elf:     file format elf32-littlearm


Disassembly of section .start:

00000000 <start>:
   0:	ea000006 	b	20 <startup>
   4:	ea00041a 	b	1074 <_testfail>
   8:	ea000419 	b	1074 <_testfail>
   c:	ea000418 	b	1074 <_testfail>
  10:	ea000417 	b	1074 <_testfail>
  14:	ea000416 	b	1074 <_testfail>
  18:	ea000415 	b	1074 <_testfail>
  1c:	ea000414 	b	1074 <_testfail>

00000020 <startup>:
  20:	e3a00003 	mov	r0, #3
  24:	e13ff000 	teq	pc, r0
  28:	e3e00000 	mvn	r0, #0
  2c:	ee030f10 	mcr	15, 0, r0, cr3, cr0, {0}
  30:	e3a00001 	mov	r0, #1
  34:	ee020f10 	mcr	15, 0, r0, cr2, cr0, {0}
  38:	e59fd0a4 	ldr	sp, [pc, #164]	; e4 <AdrStack>
  3c:	e59f00a4 	ldr	r0, [pc, #164]	; e8 <AdrMemCtrl>
  40:	e3a01001 	mov	r1, #1
  44:	e5801000 	str	r1, [r0]
  48:	eb0001b6 	bl	728 <main>

0000004c <_jump_to_program>:
  4c:	e59f1118 	ldr	r1, [pc, #280]	; 16c <AdrBootParams>
  50:	e59f20b8 	ldr	r2, [pc, #184]	; 110 <AdrATAGBase>
  54:	e59f30b8 	ldr	r3, [pc, #184]	; 114 <AdeEndATAG>
  58:	e1520003 	cmp	r2, r3
  5c:	0a000002 	beq	6c <_jump_to_program+0x20>
  60:	e4924004 	ldr	r4, [r2], #4
  64:	e4814004 	str	r4, [r1], #4
  68:	eafffffa 	b	58 <_jump_to_program+0xc>
  6c:	e59f20fc 	ldr	r2, [pc, #252]	; 170 <AdrPageTabes>
  70:	e3a03000 	mov	r3, #0
  74:	e3a04028 	mov	r4, #40	; 0x28
  78:	e4823004 	str	r3, [r2], #4
  7c:	e2544001 	subs	r4, r4, #1
  80:	1afffffc 	bne	78 <_jump_to_program+0x2c>
  84:	e1a04000 	mov	r4, r0
  88:	e38443c3 	orr	r4, r4, #201326595	; 0xc000003
  8c:	e3a00000 	mov	r0, #0
  90:	e1a0f004 	mov	pc, r4

00000094 <_core_status>:
  94:	e52de004 	push	{lr}		; (str lr, [sp, #-4]!)
  98:	e92d1fff 	push	{r0, r1, r2, r3, r4, r5, r6, r7, r8, r9, sl, fp, ip}
  9c:	e3a04000 	mov	r4, #0
  a0:	e1a0500d 	mov	r5, sp
  a4:	e1a0600e 	mov	r6, lr
  a8:	e59f00c4 	ldr	r0, [pc, #196]	; 174 <AdrPageTabes+0x4>
  ac:	e1a01004 	mov	r1, r4
  b0:	e4952004 	ldr	r2, [r5], #4
  b4:	eb0003d8 	bl	101c <printf>
  b8:	e354000d 	cmp	r4, #13
  bc:	12844001 	addne	r4, r4, #1
  c0:	1afffff8 	bne	a8 <_core_status+0x14>
  c4:	e59f00ac 	ldr	r0, [pc, #172]	; 178 <AdrPageTabes+0x8>
  c8:	e1a0100d 	mov	r1, sp
  cc:	eb0003d2 	bl	101c <printf>
  d0:	e59f00a4 	ldr	r0, [pc, #164]	; 17c <AdrPageTabes+0xc>
  d4:	e2461004 	sub	r1, r6, #4
  d8:	eb0003cf 	bl	101c <printf>
  dc:	e8bd1fff 	pop	{r0, r1, r2, r3, r4, r5, r6, r7, r8, r9, sl, fp, ip}
  e0:	e8fd8000 	ldm	sp!, {pc}^

000000e4 <AdrStack>:
  e4:	02000000 	.word	0x02000000

000000e8 <AdrMemCtrl>:
  e8:	f0000020 	.word	0xf0000020

000000ec <Status_Message>:
  ec:	64322572 	.word	0x64322572
  f0:	30252020 	.word	0x30252020
  f4:	000a7838 	.word	0x000a7838

000000f8 <SPStatus_Message>:
  f8:	20207073 	.word	0x20207073
  fc:	38302520 	.word	0x38302520
 100:	0a78      	.short	0x0a78
	...

00000103 <PCStatus_Message>:
 103:	70          	.byte	0x70
 104:	20202063 	.word	0x20202063
 108:	78383025 	.word	0x78383025
 10c:	000a      	.short	0x000a
	...

00000110 <AdrATAGBase>:
 110:	00000118 	andeq	r0, r0, r8, lsl r1

00000114 <AdeEndATAG>:
 114:	00000168 	andeq	r0, r0, r8, ror #2

00000118 <ATAGBase>:
 118:	00000005 	andeq	r0, r0, r5
 11c:	54410001 	strbpl	r0, [r1], #-1
 120:	00000001 	andeq	r0, r0, r1
 124:	00001000 	andeq	r1, r0, r0
 128:	00000000 	andeq	r0, r0, r0
 12c:	00000004 	andeq	r0, r0, r4
 130:	54410002 	strbpl	r0, [r1], #-2
 134:	02000000 	andeq	r0, r0, #0
 138:	00000000 	andeq	r0, r0, r0
 13c:	00000005 	andeq	r0, r0, r5
 140:	54410004 	strbpl	r0, [r1], #-4
 144:	00000001 	andeq	r0, r0, r1
 148:	000000d0 	ldrdeq	r0, [r0], -r0	; <UNPREDICTABLE>
 14c:	00800000 	addeq	r0, r0, r0
 150:	00000004 	andeq	r0, r0, r4
 154:	54410005 	strbpl	r0, [r1], #-5
 158:	02800000 	addeq	r0, r0, #0
 15c:	00032000 	andeq	r2, r3, r0
	...

00000168 <EndATAG>:
 168:	00000000 	andeq	r0, r0, r0

0000016c <AdrBootParams>:
 16c:	0007c000 	andeq	ip, r7, r0

00000170 <AdrPageTabes>:
 170:	03f01000 	mvnseq	r1, #0
 174:	000000ec 	andeq	r0, r0, ip, ror #1
 178:	000000f8 	strdeq	r0, [r0], -r8
 17c:	00000103 	andeq	r0, r0, r3, lsl #2

Disassembly of section .text:

00000180 <printm>:
     180:	e1a01000 	mov	r1, r0
     184:	e59f0004 	ldr	r0, [pc, #4]	; 190 <printm+0x10>
     188:	e5912000 	ldr	r2, [r1]
     18c:	ea0003a2 	b	101c <printf>
     190:	00001a1c 	.word	0x00001a1c

00000194 <print_spaces>:
     194:	e92d4010 	push	{r4, lr}
     198:	e1a04000 	mov	r4, r0
     19c:	ea000002 	b	1ac <print_spaces+0x18>
     1a0:	e59f0010 	ldr	r0, [pc, #16]	; 1b8 <print_spaces+0x24>
     1a4:	eb00039c 	bl	101c <printf>
     1a8:	e2444001 	sub	r4, r4, #1
     1ac:	e3540000 	cmp	r4, #0
     1b0:	1afffffa 	bne	1a0 <print_spaces+0xc>
     1b4:	e8bd8010 	pop	{r4, pc}
     1b8:	00001c11 	.word	0x00001c11

000001bc <print_help>:
     1bc:	e92d4010 	push	{r4, lr}
     1c0:	e59f00d0 	ldr	r0, [pc, #208]	; 298 <print_help+0xdc>
     1c4:	eb000394 	bl	101c <printf>
     1c8:	e59f00cc 	ldr	r0, [pc, #204]	; 29c <print_help+0xe0>
     1cc:	eb000392 	bl	101c <printf>
     1d0:	e3a0001d 	mov	r0, #29
     1d4:	ebffffee 	bl	194 <print_spaces>
     1d8:	e59f00c0 	ldr	r0, [pc, #192]	; 2a0 <print_help+0xe4>
     1dc:	eb00038e 	bl	101c <printf>
     1e0:	e59f00bc 	ldr	r0, [pc, #188]	; 2a4 <print_help+0xe8>
     1e4:	eb00038c 	bl	101c <printf>
     1e8:	e3a00013 	mov	r0, #19
     1ec:	ebffffe8 	bl	194 <print_spaces>
     1f0:	e59f00b0 	ldr	r0, [pc, #176]	; 2a8 <print_help+0xec>
     1f4:	eb000388 	bl	101c <printf>
     1f8:	e59f00ac 	ldr	r0, [pc, #172]	; 2ac <print_help+0xf0>
     1fc:	eb000386 	bl	101c <printf>
     200:	e59f00a8 	ldr	r0, [pc, #168]	; 2b0 <print_help+0xf4>
     204:	eb000384 	bl	101c <printf>
     208:	e3a0001d 	mov	r0, #29
     20c:	ebffffe0 	bl	194 <print_spaces>
     210:	e59f009c 	ldr	r0, [pc, #156]	; 2b4 <print_help+0xf8>
     214:	eb000380 	bl	101c <printf>
     218:	e59f0098 	ldr	r0, [pc, #152]	; 2b8 <print_help+0xfc>
     21c:	eb00037e 	bl	101c <printf>
     220:	e3a0001d 	mov	r0, #29
     224:	ebffffda 	bl	194 <print_spaces>
     228:	e59f008c 	ldr	r0, [pc, #140]	; 2bc <print_help+0x100>
     22c:	e3a01702 	mov	r1, #524288	; 0x80000
     230:	eb000379 	bl	101c <printf>
     234:	e59f0084 	ldr	r0, [pc, #132]	; 2c0 <print_help+0x104>
     238:	eb000377 	bl	101c <printf>
     23c:	e3a00013 	mov	r0, #19
     240:	ebffffd3 	bl	194 <print_spaces>
     244:	e59f0078 	ldr	r0, [pc, #120]	; 2c4 <print_help+0x108>
     248:	eb000373 	bl	101c <printf>
     24c:	e59f0074 	ldr	r0, [pc, #116]	; 2c8 <print_help+0x10c>
     250:	eb000371 	bl	101c <printf>
     254:	e3a00013 	mov	r0, #19
     258:	ebffffcd 	bl	194 <print_spaces>
     25c:	e59f0068 	ldr	r0, [pc, #104]	; 2cc <print_help+0x110>
     260:	eb00036d 	bl	101c <printf>
     264:	e59f0064 	ldr	r0, [pc, #100]	; 2d0 <print_help+0x114>
     268:	eb00036b 	bl	101c <printf>
     26c:	e3a0001d 	mov	r0, #29
     270:	ebffffc7 	bl	194 <print_spaces>
     274:	e59f0058 	ldr	r0, [pc, #88]	; 2d4 <print_help+0x118>
     278:	eb000367 	bl	101c <printf>
     27c:	e59f0054 	ldr	r0, [pc, #84]	; 2d8 <print_help+0x11c>
     280:	eb000365 	bl	101c <printf>
     284:	e3a0000b 	mov	r0, #11
     288:	ebffffc1 	bl	194 <print_spaces>
     28c:	e59f0048 	ldr	r0, [pc, #72]	; 2dc <print_help+0x120>
     290:	e8bd4010 	pop	{r4, lr}
     294:	ea000360 	b	101c <printf>
     298:	00001a31 	.word	0x00001a31
     29c:	00001a3b 	.word	0x00001a3b
     2a0:	00001a3d 	.word	0x00001a3d
     2a4:	00001a4e 	.word	0x00001a4e
     2a8:	00001a5a 	.word	0x00001a5a
     2ac:	00001a7b 	.word	0x00001a7b
     2b0:	00001aa5 	.word	0x00001aa5
     2b4:	00001aa7 	.word	0x00001aa7
     2b8:	00001abd 	.word	0x00001abd
     2bc:	00001abf 	.word	0x00001abf
     2c0:	00001ae8 	.word	0x00001ae8
     2c4:	00001af4 	.word	0x00001af4
     2c8:	00001b15 	.word	0x00001b15
     2cc:	00001b21 	.word	0x00001b21
     2d0:	00001b2d 	.word	0x00001b2d
     2d4:	00001b2f 	.word	0x00001b2f
     2d8:	00001b3e 	.word	0x00001b3e
     2dc:	00001b52 	.word	0x00001b52

000002e0 <load_run>:
     2e0:	e92d4010 	push	{r4, lr}
     2e4:	e3500002 	cmp	r0, #2
     2e8:	1a000004 	bne	300 <load_run+0x20>
     2ec:	ebffffb2 	bl	1bc <print_help>
     2f0:	ebffff67 	bl	94 <_core_status>
     2f4:	e3a00010 	mov	r0, #16
     2f8:	ebffffa5 	bl	194 <print_spaces>
     2fc:	ea00002a 	b	3ac <load_run+0xcc>
     300:	e3500001 	cmp	r0, #1
     304:	1a00000f 	bne	348 <load_run+0x68>
     308:	e59f00a4 	ldr	r0, [pc, #164]	; 3b4 <load_run+0xd4>
     30c:	eb000342 	bl	101c <printf>
     310:	e3a00401 	mov	r0, #16777216	; 0x1000000
     314:	e3a01502 	mov	r1, #8388608	; 0x800000
     318:	eb000185 	bl	934 <xmodemReceive>
     31c:	e1a04000 	mov	r4, r0
     320:	e3500502 	cmp	r0, #8388608	; 0x800000
     324:	859f008c 	ldrhi	r0, [pc, #140]	; 3b8 <load_run+0xd8>
     328:	81a01004 	movhi	r1, r4
     32c:	8a000013 	bhi	380 <load_run+0xa0>
     330:	e59f0084 	ldr	r0, [pc, #132]	; 3bc <load_run+0xdc>
     334:	eb000338 	bl	101c <printf>
     338:	e3a00401 	mov	r0, #16777216	; 0x1000000
     33c:	e1a01004 	mov	r1, r4
     340:	e8bd4010 	pop	{r4, lr}
     344:	ea000217 	b	ba8 <elfsplitter>
     348:	e3500004 	cmp	r0, #4
     34c:	1a000002 	bne	35c <load_run+0x7c>
     350:	e59f0068 	ldr	r0, [pc, #104]	; 3c0 <load_run+0xe0>
     354:	e8bd4010 	pop	{r4, lr}
     358:	eaffff3b 	b	4c <_jump_to_program>
     35c:	e3500005 	cmp	r0, #5
     360:	1a000008 	bne	388 <load_run+0xa8>
     364:	e1a00001 	mov	r0, r1
     368:	e3a01502 	mov	r1, #8388608	; 0x800000
     36c:	eb000170 	bl	934 <xmodemReceive>
     370:	e1a01000 	mov	r1, r0
     374:	e3500502 	cmp	r0, #8388608	; 0x800000
     378:	98bd8010 	popls	{r4, pc}
     37c:	e59f0034 	ldr	r0, [pc, #52]	; 3b8 <load_run+0xd8>
     380:	e8bd4010 	pop	{r4, lr}
     384:	ea000324 	b	101c <printf>
     388:	e59f0034 	ldr	r0, [pc, #52]	; 3c4 <load_run+0xe4>
     38c:	e3a01702 	mov	r1, #524288	; 0x80000
     390:	eb000321 	bl	101c <printf>
     394:	e3a00010 	mov	r0, #16
     398:	ebffff7d 	bl	194 <print_spaces>
     39c:	e59f0024 	ldr	r0, [pc, #36]	; 3c8 <load_run+0xe8>
     3a0:	eb00031d 	bl	101c <printf>
     3a4:	e3a00702 	mov	r0, #524288	; 0x80000
     3a8:	ebffff27 	bl	4c <_jump_to_program>
     3ac:	e8bd4010 	pop	{r4, lr}
     3b0:	ea000332 	b	1080 <_testpass>
     3b4:	00001b5f 	.word	0x00001b5f
     3b8:	00001b9e 	.word	0x00001b9e
     3bc:	00001bbc 	.word	0x00001bbc
     3c0:	0080e400 	.word	0x0080e400
     3c4:	00001bc8 	.word	0x00001bc8
     3c8:	00001bba 	.word	0x00001bba

000003cc <get_hex>:
     3cc:	e92d4070 	push	{r4, r5, r6, lr}
     3d0:	e3a05000 	mov	r5, #0
     3d4:	e5825000 	str	r5, [r2]
     3d8:	e1a0c001 	mov	ip, r1
     3dc:	e7d0400c 	ldrb	r4, [r0, ip]
     3e0:	e2446030 	sub	r6, r4, #48	; 0x30
     3e4:	e3560009 	cmp	r6, #9
     3e8:	8a000005 	bhi	404 <get_hex+0x38>
     3ec:	e5924000 	ldr	r4, [r2]
     3f0:	e1a04204 	lsl	r4, r4, #4
     3f4:	e5824000 	str	r4, [r2]
     3f8:	e7d0600c 	ldrb	r6, [r0, ip]
     3fc:	e2466030 	sub	r6, r6, #48	; 0x30
     400:	ea000007 	b	424 <get_hex+0x58>
     404:	e2446041 	sub	r6, r4, #65	; 0x41
     408:	e3560005 	cmp	r6, #5
     40c:	8a000008 	bhi	434 <get_hex+0x68>
     410:	e5924000 	ldr	r4, [r2]
     414:	e1a04204 	lsl	r4, r4, #4
     418:	e5824000 	str	r4, [r2]
     41c:	e7d0600c 	ldrb	r6, [r0, ip]
     420:	e2466037 	sub	r6, r6, #55	; 0x37
     424:	e0864004 	add	r4, r6, r4
     428:	e5824000 	str	r4, [r2]
     42c:	e3a04000 	mov	r4, #0
     430:	ea00000a 	b	460 <get_hex+0x94>
     434:	e2444061 	sub	r4, r4, #97	; 0x61
     438:	e3540005 	cmp	r4, #5
     43c:	85835000 	strhi	r5, [r3]
     440:	83a04001 	movhi	r4, #1
     444:	8a000005 	bhi	460 <get_hex+0x94>
     448:	e5924000 	ldr	r4, [r2]
     44c:	e1a04204 	lsl	r4, r4, #4
     450:	e5824000 	str	r4, [r2]
     454:	e7d0600c 	ldrb	r6, [r0, ip]
     458:	e2466057 	sub	r6, r6, #87	; 0x57
     45c:	eafffff0 	b	424 <get_hex+0x58>
     460:	e2816007 	add	r6, r1, #7
     464:	e156000c 	cmp	r6, ip
     468:	b3a04008 	movlt	r4, #8
     46c:	b5834000 	strlt	r4, [r3]
     470:	b3a04001 	movlt	r4, #1
     474:	e28cc001 	add	ip, ip, #1
     478:	e2855001 	add	r5, r5, #1
     47c:	e3540000 	cmp	r4, #0
     480:	0affffd5 	beq	3dc <get_hex+0x10>
     484:	e2811001 	add	r1, r1, #1
     488:	e15c0001 	cmp	ip, r1
     48c:	d3a00000 	movle	r0, #0
     490:	c3a00001 	movgt	r0, #1
     494:	e8bd8070 	pop	{r4, r5, r6, pc}

00000498 <get_address_data>:
     498:	e92d4037 	push	{r0, r1, r2, r4, r5, lr}
     49c:	e1a05000 	mov	r5, r0
     4a0:	e1a03001 	mov	r3, r1
     4a4:	e1a04002 	mov	r4, r2
     4a8:	e3a01002 	mov	r1, #2
     4ac:	e1a02003 	mov	r2, r3
     4b0:	e28d3004 	add	r3, sp, #4
     4b4:	ebffffc4 	bl	3cc <get_hex>
     4b8:	e3500000 	cmp	r0, #0
     4bc:	0a000005 	beq	4d8 <get_address_data+0x40>
     4c0:	e1a00005 	mov	r0, r5
     4c4:	e59d1004 	ldr	r1, [sp, #4]
     4c8:	e2811003 	add	r1, r1, #3
     4cc:	e1a02004 	mov	r2, r4
     4d0:	e28d3004 	add	r3, sp, #4
     4d4:	ebffffbc 	bl	3cc <get_hex>
     4d8:	e8bd803e 	pop	{r1, r2, r3, r4, r5, pc}

000004dc <parse>:
     4dc:	e92d4010 	push	{r4, lr}
     4e0:	e24dd020 	sub	sp, sp, #32
     4e4:	e1a04000 	mov	r4, r0
     4e8:	e1a0000d 	mov	r0, sp
     4ec:	e59f1228 	ldr	r1, [pc, #552]	; 71c <parse+0x240>
     4f0:	e3a02010 	mov	r2, #16
     4f4:	eb000332 	bl	11c4 <memcpy>
     4f8:	e5d43001 	ldrb	r3, [r4, #1]
     4fc:	e3530000 	cmp	r3, #0
     500:	0a000083 	beq	714 <parse+0x238>
     504:	e353000d 	cmp	r3, #13
     508:	1a00001e 	bne	588 <parse+0xac>
     50c:	e5d43000 	ldrb	r3, [r4]
     510:	e2433068 	sub	r3, r3, #104	; 0x68
     514:	e353000b 	cmp	r3, #11
     518:	979ff103 	ldrls	pc, [pc, r3, lsl #2]
     51c:	ea000079 	b	708 <parse+0x22c>
     520:	00000550 	.word	0x00000550
     524:	00000708 	.word	0x00000708
     528:	00000564 	.word	0x00000564
     52c:	00000708 	.word	0x00000708
     530:	00000558 	.word	0x00000558
     534:	00000708 	.word	0x00000708
     538:	00000708 	.word	0x00000708
     53c:	00000708 	.word	0x00000708
     540:	00000708 	.word	0x00000708
     544:	00000708 	.word	0x00000708
     548:	00000708 	.word	0x00000708
     54c:	00000570 	.word	0x00000570
     550:	ebffff19 	bl	1bc <print_help>
     554:	ea00006e 	b	714 <parse+0x238>
     558:	e3a00001 	mov	r0, #1
     55c:	e3a01000 	mov	r1, #0
     560:	ea00005a 	b	6d0 <parse+0x1f4>
     564:	e3a00000 	mov	r0, #0
     568:	e1a01000 	mov	r1, r0
     56c:	ea000057 	b	6d0 <parse+0x1f4>
     570:	ebfffec7 	bl	94 <_core_status>
     574:	e3a00010 	mov	r0, #16
     578:	ebffff05 	bl	194 <print_spaces>
     57c:	e59f019c 	ldr	r0, [pc, #412]	; 720 <parse+0x244>
     580:	eb0002a5 	bl	101c <printf>
     584:	ea000062 	b	714 <parse+0x238>
     588:	e3530020 	cmp	r3, #32
     58c:	1a00005d 	bne	708 <parse+0x22c>
     590:	e5d43000 	ldrb	r3, [r4]
     594:	e3530070 	cmp	r3, #112	; 0x70
     598:	0a00001b 	beq	60c <parse+0x130>
     59c:	8a000004 	bhi	5b4 <parse+0xd8>
     5a0:	e3530062 	cmp	r3, #98	; 0x62
     5a4:	0a000040 	beq	6ac <parse+0x1d0>
     5a8:	e3530064 	cmp	r3, #100	; 0x64
     5ac:	1a000055 	bne	708 <parse+0x22c>
     5b0:	ea000004 	b	5c8 <parse+0xec>
     5b4:	e3530072 	cmp	r3, #114	; 0x72
     5b8:	0a000033 	beq	68c <parse+0x1b0>
     5bc:	e3530077 	cmp	r3, #119	; 0x77
     5c0:	1a000050 	bne	708 <parse+0x22c>
     5c4:	ea000043 	b	6d8 <parse+0x1fc>
     5c8:	e1a00004 	mov	r0, r4
     5cc:	e28d101c 	add	r1, sp, #28
     5d0:	e28d2010 	add	r2, sp, #16
     5d4:	ebffffaf 	bl	498 <get_address_data>
     5d8:	e3500000 	cmp	r0, #0
     5dc:	159d401c 	ldrne	r4, [sp, #28]
     5e0:	1a000003 	bne	5f4 <parse+0x118>
     5e4:	ea00004a 	b	714 <parse+0x238>
     5e8:	e1a00004 	mov	r0, r4
     5ec:	ebfffee3 	bl	180 <printm>
     5f0:	e2844004 	add	r4, r4, #4
     5f4:	e59d301c 	ldr	r3, [sp, #28]
     5f8:	e59d2010 	ldr	r2, [sp, #16]
     5fc:	e0823003 	add	r3, r2, r3
     600:	e1540003 	cmp	r4, r3
     604:	3afffff7 	bcc	5e8 <parse+0x10c>
     608:	ea000041 	b	714 <parse+0x238>
     60c:	e1a00004 	mov	r0, r4
     610:	e3a01002 	mov	r1, #2
     614:	e28d201c 	add	r2, sp, #28
     618:	e28d3014 	add	r3, sp, #20
     61c:	ebffff6a 	bl	3cc <get_hex>
     620:	e3500000 	cmp	r0, #0
     624:	0a00003a 	beq	714 <parse+0x238>
     628:	e3a03000 	mov	r3, #0
     62c:	e58d3014 	str	r3, [sp, #20]
     630:	e59d301c 	ldr	r3, [sp, #28]
     634:	e4d34001 	ldrb	r4, [r3], #1
     638:	e58d301c 	str	r3, [sp, #28]
     63c:	ea00000c 	b	674 <parse+0x198>
     640:	e3540000 	cmp	r4, #0
     644:	0a000004 	beq	65c <parse+0x180>
     648:	e1a00004 	mov	r0, r4
     64c:	eb00028f 	bl	1090 <_outbyte>
     650:	e354000d 	cmp	r4, #13
     654:	059f00c4 	ldreq	r0, [pc, #196]	; 720 <parse+0x244>
     658:	0b00026f 	bleq	101c <printf>
     65c:	e59d301c 	ldr	r3, [sp, #28]
     660:	e4d34001 	ldrb	r4, [r3], #1
     664:	e58d301c 	str	r3, [sp, #28]
     668:	e59d3014 	ldr	r3, [sp, #20]
     66c:	e2833001 	add	r3, r3, #1
     670:	e58d3014 	str	r3, [sp, #20]
     674:	e3140080 	tst	r4, #128	; 0x80
     678:	1a000025 	bne	714 <parse+0x238>
     67c:	e59d3014 	ldr	r3, [sp, #20]
     680:	e3530a01 	cmp	r3, #4096	; 0x1000
     684:	3affffed 	bcc	640 <parse+0x164>
     688:	ea000021 	b	714 <parse+0x238>
     68c:	e1a00004 	mov	r0, r4
     690:	e3a01002 	mov	r1, #2
     694:	e28d201c 	add	r2, sp, #28
     698:	e28d3014 	add	r3, sp, #20
     69c:	ebffff4a 	bl	3cc <get_hex>
     6a0:	e3500000 	cmp	r0, #0
     6a4:	0a00001a 	beq	714 <parse+0x238>
     6a8:	ea000013 	b	6fc <parse+0x220>
     6ac:	e1a00004 	mov	r0, r4
     6b0:	e3a01002 	mov	r1, #2
     6b4:	e28d201c 	add	r2, sp, #28
     6b8:	e28d3014 	add	r3, sp, #20
     6bc:	ebffff42 	bl	3cc <get_hex>
     6c0:	e3500000 	cmp	r0, #0
     6c4:	0a000012 	beq	714 <parse+0x238>
     6c8:	e3a00005 	mov	r0, #5
     6cc:	e59d101c 	ldr	r1, [sp, #28]
     6d0:	ebffff02 	bl	2e0 <load_run>
     6d4:	ea00000e 	b	714 <parse+0x238>
     6d8:	e1a00004 	mov	r0, r4
     6dc:	e28d101c 	add	r1, sp, #28
     6e0:	e28d2018 	add	r2, sp, #24
     6e4:	ebffff6b 	bl	498 <get_address_data>
     6e8:	e3500000 	cmp	r0, #0
     6ec:	0a000008 	beq	714 <parse+0x238>
     6f0:	e28d2018 	add	r2, sp, #24
     6f4:	e892000c 	ldm	r2, {r2, r3}
     6f8:	e5832000 	str	r2, [r3]
     6fc:	e59d001c 	ldr	r0, [sp, #28]
     700:	ebfffe9e 	bl	180 <printm>
     704:	ea000002 	b	714 <parse+0x238>
     708:	e59f0014 	ldr	r0, [pc, #20]	; 724 <parse+0x248>
     70c:	e1a0100d 	mov	r1, sp
     710:	eb000241 	bl	101c <printf>
     714:	e28dd020 	add	sp, sp, #32
     718:	e8bd8010 	pop	{r4, pc}
     71c:	00001bd2 	.word	0x00001bd2
     720:	00001bba 	.word	0x00001bba
     724:	00001bf7 	.word	0x00001bf7

00000728 <main>:
     728:	e92d41f0 	push	{r4, r5, r6, r7, r8, lr}
     72c:	e24dd028 	sub	sp, sp, #40	; 0x28
     730:	e3a02010 	mov	r2, #16
     734:	e3a03416 	mov	r3, #369098752	; 0x16000000
     738:	e5832008 	str	r2, [r3, #8]
     73c:	e59f0174 	ldr	r0, [pc, #372]	; 8b8 <main+0x190>
     740:	e3a0100c 	mov	r1, #12
     744:	e59f2170 	ldr	r2, [pc, #368]	; 8bc <main+0x194>
     748:	eb000233 	bl	101c <printf>
     74c:	e3a0320f 	mov	r3, #-268435456	; 0xf0000000
     750:	e593001c 	ldr	r0, [r3, #28]
     754:	e3500000 	cmp	r0, #0
     758:	13a01000 	movne	r1, #0
     75c:	1bfffedf 	blne	2e0 <load_run>
     760:	ebfffe95 	bl	1bc <print_help>
     764:	e59f0154 	ldr	r0, [pc, #340]	; 8c0 <main+0x198>
     768:	eb00022b 	bl	101c <printf>
     76c:	e3a07000 	mov	r7, #0
     770:	e1a04007 	mov	r4, r7
     774:	e1a05007 	mov	r5, r7
     778:	e3a00ffa 	mov	r0, #1000	; 0x3e8
     77c:	eb00024b 	bl	10b0 <_inbyte>
     780:	e2506000 	subs	r6, r0, #0
     784:	bafffffb 	blt	778 <main+0x50>
     788:	e356001b 	cmp	r6, #27
     78c:	0a00001c 	beq	804 <main+0xdc>
     790:	e356005b 	cmp	r6, #91	; 0x5b
     794:	03550001 	cmpeq	r5, #1
     798:	13a08000 	movne	r8, #0
     79c:	03a08001 	moveq	r8, #1
     7a0:	03a05002 	moveq	r5, #2
     7a4:	0a00001c 	beq	81c <main+0xf4>
     7a8:	e3550002 	cmp	r5, #2
     7ac:	1a000036 	bne	88c <main+0x164>
     7b0:	e3560041 	cmp	r6, #65	; 0x41
     7b4:	11a05008 	movne	r5, r8
     7b8:	1affffee 	bne	778 <main+0x50>
     7bc:	ea000002 	b	7cc <main+0xa4>
     7c0:	e3a00008 	mov	r0, #8
     7c4:	eb000231 	bl	1090 <_outbyte>
     7c8:	e2888001 	add	r8, r8, #1
     7cc:	e1580004 	cmp	r8, r4
     7d0:	bafffffa 	blt	7c0 <main+0x98>
     7d4:	e3a04000 	mov	r4, #0
     7d8:	ea000004 	b	7f0 <main+0xc8>
     7dc:	e7dd0004 	ldrb	r0, [sp, r4]
     7e0:	e28d3014 	add	r3, sp, #20
     7e4:	e7c30004 	strb	r0, [r3, r4]
     7e8:	eb000228 	bl	1090 <_outbyte>
     7ec:	e2844001 	add	r4, r4, #1
     7f0:	e1540007 	cmp	r4, r7
     7f4:	bafffff8 	blt	7dc <main+0xb4>
     7f8:	e1a04007 	mov	r4, r7
     7fc:	e3a05000 	mov	r5, #0
     800:	eaffffdc 	b	778 <main+0x50>
     804:	e3a05001 	mov	r5, #1
     808:	ea000003 	b	81c <main+0xf4>
     80c:	e28d2028 	add	r2, sp, #40	; 0x28
     810:	e0823004 	add	r3, r2, r4
     814:	e5436014 	strb	r6, [r3, #-20]	; 0xffffffec
     818:	e2844001 	add	r4, r4, #1
     81c:	e246200d 	sub	r2, r6, #13
     820:	e2726000 	rsbs	r6, r2, #0
     824:	e0a66002 	adc	r6, r6, r2
     828:	e3540012 	cmp	r4, #18
     82c:	c3866001 	orrgt	r6, r6, #1
     830:	e3560000 	cmp	r6, #0
     834:	0affffcf 	beq	778 <main+0x50>
     838:	e3540001 	cmp	r4, #1
     83c:	da000007 	ble	860 <main+0x138>
     840:	e3a03000 	mov	r3, #0
     844:	e28d2014 	add	r2, sp, #20
     848:	e7d22003 	ldrb	r2, [r2, r3]
     84c:	e7cd2003 	strb	r2, [sp, r3]
     850:	e2833001 	add	r3, r3, #1
     854:	e3530014 	cmp	r3, #20
     858:	1afffff9 	bne	844 <main+0x11c>
     85c:	e2447001 	sub	r7, r4, #1
     860:	e28d2028 	add	r2, sp, #40	; 0x28
     864:	e0823004 	add	r3, r2, r4
     868:	e3a04000 	mov	r4, #0
     86c:	e5434014 	strb	r4, [r3, #-20]	; 0xffffffec
     870:	e59f004c 	ldr	r0, [pc, #76]	; 8c4 <main+0x19c>
     874:	eb0001e8 	bl	101c <printf>
     878:	e28d0014 	add	r0, sp, #20
     87c:	ebffff16 	bl	4dc <parse>
     880:	e59f0040 	ldr	r0, [pc, #64]	; 8c8 <main+0x1a0>
     884:	eb0001e4 	bl	101c <printf>
     888:	eaffffba 	b	778 <main+0x50>
     88c:	eb0001ff 	bl	1090 <_outbyte>
     890:	e2463008 	sub	r3, r6, #8
     894:	e2735000 	rsbs	r5, r3, #0
     898:	e0a55003 	adc	r5, r5, r3
     89c:	e3540000 	cmp	r4, #0
     8a0:	d3a05000 	movle	r5, #0
     8a4:	e3550000 	cmp	r5, #0
     8a8:	12444001 	subne	r4, r4, #1
     8ac:	11a05008 	movne	r5, r8
     8b0:	1affffd9 	bne	81c <main+0xf4>
     8b4:	eaffffd4 	b	80c <main+0xe4>
     8b8:	00001be2 	.word	0x00001be2
     8bc:	00001bfb 	.word	0x00001bfb
     8c0:	00001c0a 	.word	0x00001c0a
     8c4:	00001bba 	.word	0x00001bba
     8c8:	00001c10 	.word	0x00001c10

000008cc <crc16_ccitt>:
     8cc:	e92d4030 	push	{r4, r5, lr}
     8d0:	e1a03000 	mov	r3, r0
     8d4:	e3a00000 	mov	r0, #0
     8d8:	e1a02000 	mov	r2, r0
     8dc:	ea00000a 	b	90c <crc16_ccitt+0x40>
     8e0:	e59fc030 	ldr	ip, [pc, #48]	; 918 <crc16_ccitt+0x4c>
     8e4:	e7d34002 	ldrb	r4, [r3, r2]
     8e8:	e0244420 	eor	r4, r4, r0, lsr #8
     8ec:	e08c5084 	add	r5, ip, r4, lsl #1
     8f0:	e7dcc084 	ldrb	ip, [ip, r4, lsl #1]
     8f4:	e5d54001 	ldrb	r4, [r5, #1]
     8f8:	e18cc404 	orr	ip, ip, r4, lsl #8
     8fc:	e02c0400 	eor	r0, ip, r0, lsl #8
     900:	e1a00800 	lsl	r0, r0, #16
     904:	e1a00820 	lsr	r0, r0, #16
     908:	e2822001 	add	r2, r2, #1
     90c:	e1520001 	cmp	r2, r1
     910:	bafffff2 	blt	8e0 <crc16_ccitt+0x14>
     914:	e8bd8030 	pop	{r4, r5, pc}
     918:	0000181c 	.word	0x0000181c

0000091c <flushinput>:
     91c:	e92d4008 	push	{r3, lr}
     920:	e3a00f4b 	mov	r0, #300	; 0x12c
     924:	eb0001e1 	bl	10b0 <_inbyte>
     928:	e3500000 	cmp	r0, #0
     92c:	aafffffb 	bge	920 <flushinput+0x4>
     930:	e8bd8008 	pop	{r3, pc}

00000934 <xmodemReceive>:
     934:	e92d4ff0 	push	{r4, r5, r6, r7, r8, r9, sl, fp, lr}
     938:	e24dde41 	sub	sp, sp, #1040	; 0x410
     93c:	e24dd004 	sub	sp, sp, #4
     940:	e1a08000 	mov	r8, r0
     944:	e58d1004 	str	r1, [sp, #4]
     948:	e3a0b019 	mov	fp, #25
     94c:	e3a04000 	mov	r4, #0
     950:	e3a06001 	mov	r6, #1
     954:	e3a07043 	mov	r7, #67	; 0x43
     958:	e1a05004 	mov	r5, r4
     95c:	ea000000 	b	964 <xmodemReceive+0x30>
     960:	e3a07015 	mov	r7, #21
     964:	e3a0a050 	mov	sl, #80	; 0x50
     968:	e3570000 	cmp	r7, #0
     96c:	11a00007 	movne	r0, r7
     970:	1b0001c6 	blne	1090 <_outbyte>
     974:	e3a00ffa 	mov	r0, #1000	; 0x3e8
     978:	eb0001cc 	bl	10b0 <_inbyte>
     97c:	e3500000 	cmp	r0, #0
     980:	ba000017 	blt	9e4 <xmodemReceive+0xb0>
     984:	e3500002 	cmp	r0, #2
     988:	0a000024 	beq	a20 <xmodemReceive+0xec>
     98c:	ca000002 	bgt	99c <xmodemReceive+0x68>
     990:	e3500001 	cmp	r0, #1
     994:	1a000012 	bne	9e4 <xmodemReceive+0xb0>
     998:	ea00001e 	b	a18 <xmodemReceive+0xe4>
     99c:	e3500004 	cmp	r0, #4
     9a0:	0a000002 	beq	9b0 <xmodemReceive+0x7c>
     9a4:	e3500018 	cmp	r0, #24
     9a8:	1a00000d 	bne	9e4 <xmodemReceive+0xb0>
     9ac:	ea000003 	b	9c0 <xmodemReceive+0x8c>
     9b0:	e3a00006 	mov	r0, #6
     9b4:	eb0001b5 	bl	1090 <_outbyte>
     9b8:	ebffffd7 	bl	91c <flushinput>
     9bc:	ea000075 	b	b98 <xmodemReceive+0x264>
     9c0:	e3a00ffa 	mov	r0, #1000	; 0x3e8
     9c4:	eb0001b9 	bl	10b0 <_inbyte>
     9c8:	e3500018 	cmp	r0, #24
     9cc:	1a000004 	bne	9e4 <xmodemReceive+0xb0>
     9d0:	ebffffd1 	bl	91c <flushinput>
     9d4:	e3a00006 	mov	r0, #6
     9d8:	eb0001ac 	bl	1090 <_outbyte>
     9dc:	e3e04000 	mvn	r4, #0
     9e0:	ea00006c 	b	b98 <xmodemReceive+0x264>
     9e4:	e25aa001 	subs	sl, sl, #1
     9e8:	1affffde 	bne	968 <xmodemReceive+0x34>
     9ec:	e3570043 	cmp	r7, #67	; 0x43
     9f0:	0affffda 	beq	960 <xmodemReceive+0x2c>
     9f4:	ebffffc8 	bl	91c <flushinput>
     9f8:	e3a00018 	mov	r0, #24
     9fc:	eb0001a3 	bl	1090 <_outbyte>
     a00:	e3a00018 	mov	r0, #24
     a04:	eb0001a1 	bl	1090 <_outbyte>
     a08:	e3a00018 	mov	r0, #24
     a0c:	eb00019f 	bl	1090 <_outbyte>
     a10:	e3e04001 	mvn	r4, #1
     a14:	ea00005f 	b	b98 <xmodemReceive+0x264>
     a18:	e3a0a080 	mov	sl, #128	; 0x80
     a1c:	ea000000 	b	a24 <xmodemReceive+0xf0>
     a20:	e3a0ab01 	mov	sl, #1024	; 0x400
     a24:	e3570043 	cmp	r7, #67	; 0x43
     a28:	03a05001 	moveq	r5, #1
     a2c:	e5cd0008 	strb	r0, [sp, #8]
     a30:	e28d7008 	add	r7, sp, #8
     a34:	e3a03000 	mov	r3, #0
     a38:	e1a09007 	mov	r9, r7
     a3c:	ea000007 	b	a60 <xmodemReceive+0x12c>
     a40:	e3a00ffa 	mov	r0, #1000	; 0x3e8
     a44:	e58d3000 	str	r3, [sp]
     a48:	eb000198 	bl	10b0 <_inbyte>
     a4c:	e3500000 	cmp	r0, #0
     a50:	e59d3000 	ldr	r3, [sp]
     a54:	ba00004a 	blt	b84 <xmodemReceive+0x250>
     a58:	e5e70001 	strb	r0, [r7, #1]!
     a5c:	e2833001 	add	r3, r3, #1
     a60:	e28a2002 	add	r2, sl, #2
     a64:	e0822005 	add	r2, r2, r5
     a68:	e1520003 	cmp	r2, r3
     a6c:	aafffff3 	bge	a40 <xmodemReceive+0x10c>
     a70:	e5dd3009 	ldrb	r3, [sp, #9]
     a74:	e5dd200a 	ldrb	r2, [sp, #10]
     a78:	e1e02002 	mvn	r2, r2
     a7c:	e20220ff 	and	r2, r2, #255	; 0xff
     a80:	e1530002 	cmp	r3, r2
     a84:	1a00003e 	bne	b84 <xmodemReceive+0x250>
     a88:	e1530006 	cmp	r3, r6
     a8c:	0a000002 	beq	a9c <xmodemReceive+0x168>
     a90:	e2462001 	sub	r2, r6, #1
     a94:	e1530002 	cmp	r3, r2
     a98:	1a000039 	bne	b84 <xmodemReceive+0x250>
     a9c:	e3550000 	cmp	r5, #0
     aa0:	02891002 	addeq	r1, r9, #2
     aa4:	01a03005 	moveq	r3, r5
     aa8:	01a02005 	moveq	r2, r5
     aac:	0a00000a 	beq	adc <xmodemReceive+0x1a8>
     ab0:	e2890003 	add	r0, r9, #3
     ab4:	e1a0100a 	mov	r1, sl
     ab8:	ebffff83 	bl	8cc <crc16_ccitt>
     abc:	e089300a 	add	r3, r9, sl
     ac0:	e5d32004 	ldrb	r2, [r3, #4]
     ac4:	e5d33003 	ldrb	r3, [r3, #3]
     ac8:	e0823403 	add	r3, r2, r3, lsl #8
     acc:	e1a03803 	lsl	r3, r3, #16
     ad0:	e1500823 	cmp	r0, r3, lsr #16
     ad4:	1a00002a 	bne	b84 <xmodemReceive+0x250>
     ad8:	ea000009 	b	b04 <xmodemReceive+0x1d0>
     adc:	e5f10001 	ldrb	r0, [r1, #1]!
     ae0:	e0833000 	add	r3, r3, r0
     ae4:	e20330ff 	and	r3, r3, #255	; 0xff
     ae8:	e2822001 	add	r2, r2, #1
     aec:	e152000a 	cmp	r2, sl
     af0:	bafffff9 	blt	adc <xmodemReceive+0x1a8>
     af4:	e089200a 	add	r2, r9, sl
     af8:	e5d22003 	ldrb	r2, [r2, #3]
     afc:	e1520003 	cmp	r2, r3
     b00:	1a00001f 	bne	b84 <xmodemReceive+0x250>
     b04:	e5dd7009 	ldrb	r7, [sp, #9]
     b08:	e1570006 	cmp	r7, r6
     b0c:	1a00000e 	bne	b4c <xmodemReceive+0x218>
     b10:	e59d3004 	ldr	r3, [sp, #4]
     b14:	e0646003 	rsb	r6, r4, r3
     b18:	e156000a 	cmp	r6, sl
     b1c:	c1a0600a 	movgt	r6, sl
     b20:	ca000001 	bgt	b2c <xmodemReceive+0x1f8>
     b24:	e3560000 	cmp	r6, #0
     b28:	da000004 	ble	b40 <xmodemReceive+0x20c>
     b2c:	e0880004 	add	r0, r8, r4
     b30:	e2891003 	add	r1, r9, #3
     b34:	e1a02006 	mov	r2, r6
     b38:	eb0001a1 	bl	11c4 <memcpy>
     b3c:	e0844006 	add	r4, r4, r6
     b40:	e2877001 	add	r7, r7, #1
     b44:	e20760ff 	and	r6, r7, #255	; 0xff
     b48:	e3a0b01a 	mov	fp, #26
     b4c:	e24bb001 	sub	fp, fp, #1
     b50:	e35b0000 	cmp	fp, #0
     b54:	ca000008 	bgt	b7c <xmodemReceive+0x248>
     b58:	ebffff6f 	bl	91c <flushinput>
     b5c:	e3a00018 	mov	r0, #24
     b60:	eb00014a 	bl	1090 <_outbyte>
     b64:	e3a00018 	mov	r0, #24
     b68:	eb000148 	bl	1090 <_outbyte>
     b6c:	e3a00018 	mov	r0, #24
     b70:	eb000146 	bl	1090 <_outbyte>
     b74:	e3e04002 	mvn	r4, #2
     b78:	ea000006 	b	b98 <xmodemReceive+0x264>
     b7c:	e3a00006 	mov	r0, #6
     b80:	ea000001 	b	b8c <xmodemReceive+0x258>
     b84:	ebffff64 	bl	91c <flushinput>
     b88:	e3a00015 	mov	r0, #21
     b8c:	eb00013f 	bl	1090 <_outbyte>
     b90:	e3a07000 	mov	r7, #0
     b94:	eaffff72 	b	964 <xmodemReceive+0x30>
     b98:	e1a00004 	mov	r0, r4
     b9c:	e28dd014 	add	sp, sp, #20
     ba0:	e28ddb01 	add	sp, sp, #1024	; 0x400
     ba4:	e8bd8ff0 	pop	{r4, r5, r6, r7, r8, r9, sl, fp, pc}

00000ba8 <elfsplitter>:
     ba8:	e92d41f0 	push	{r4, r5, r6, r7, r8, lr}
     bac:	e1a04000 	mov	r4, r0
     bb0:	e2800001 	add	r0, r0, #1
     bb4:	e59f1118 	ldr	r1, [pc, #280]	; cd4 <elfsplitter+0x12c>
     bb8:	e3a02003 	mov	r2, #3
     bbc:	eb00016d 	bl	1178 <strncmp>
     bc0:	e3500000 	cmp	r0, #0
     bc4:	159f010c 	ldrne	r0, [pc, #268]	; cd8 <elfsplitter+0x130>
     bc8:	1a000008 	bne	bf0 <elfsplitter+0x48>
     bcc:	e5d43012 	ldrb	r3, [r4, #18]
     bd0:	e5d42013 	ldrb	r2, [r4, #19]
     bd4:	e1833402 	orr	r3, r3, r2, lsl #8
     bd8:	e3530028 	cmp	r3, #40	; 0x28
     bdc:	05d43030 	ldrbeq	r3, [r4, #48]	; 0x30
     be0:	05d45031 	ldrbeq	r5, [r4, #49]	; 0x31
     be4:	01835405 	orreq	r5, r3, r5, lsl #8
     be8:	0a000035 	beq	cc4 <elfsplitter+0x11c>
     bec:	e59f00e8 	ldr	r0, [pc, #232]	; cdc <elfsplitter+0x134>
     bf0:	eb000109 	bl	101c <printf>
     bf4:	e3a00001 	mov	r0, #1
     bf8:	e8bd81f0 	pop	{r4, r5, r6, r7, r8, pc}
     bfc:	e5d4302e 	ldrb	r3, [r4, #46]	; 0x2e
     c00:	e5d4202f 	ldrb	r2, [r4, #47]	; 0x2f
     c04:	e1833402 	orr	r3, r3, r2, lsl #8
     c08:	e5942020 	ldr	r2, [r4, #32]
     c0c:	e0232390 	mla	r3, r0, r3, r2
     c10:	e0843003 	add	r3, r4, r3
     c14:	e5932004 	ldr	r2, [r3, #4]
     c18:	e3520001 	cmp	r2, #1
     c1c:	1a000015 	bne	c78 <elfsplitter+0xd0>
     c20:	e5932014 	ldr	r2, [r3, #20]
     c24:	e3520000 	cmp	r2, #0
     c28:	13a02000 	movne	r2, #0
     c2c:	1a00000e 	bne	c6c <elfsplitter+0xc4>
     c30:	ea000010 	b	c78 <elfsplitter+0xd0>
     c34:	e593c010 	ldr	ip, [r3, #16]
     c38:	e082c00c 	add	ip, r2, ip
     c3c:	e593600c 	ldr	r6, [r3, #12]
     c40:	e084100c 	add	r1, r4, ip
     c44:	e5d17003 	ldrb	r7, [r1, #3]
     c48:	e5d18002 	ldrb	r8, [r1, #2]
     c4c:	e1a08808 	lsl	r8, r8, #16
     c50:	e1888c07 	orr	r8, r8, r7, lsl #24
     c54:	e7d4700c 	ldrb	r7, [r4, ip]
     c58:	e188c007 	orr	ip, r8, r7
     c5c:	e5d11001 	ldrb	r1, [r1, #1]
     c60:	e18c1401 	orr	r1, ip, r1, lsl #8
     c64:	e7821006 	str	r1, [r2, r6]
     c68:	e2822004 	add	r2, r2, #4
     c6c:	e5931014 	ldr	r1, [r3, #20]
     c70:	e1520001 	cmp	r2, r1
     c74:	3affffee 	bcc	c34 <elfsplitter+0x8c>
     c78:	e5932004 	ldr	r2, [r3, #4]
     c7c:	e3520008 	cmp	r2, #8
     c80:	1a00000e 	bne	cc0 <elfsplitter+0x118>
     c84:	e5932014 	ldr	r2, [r3, #20]
     c88:	e3520000 	cmp	r2, #0
     c8c:	15932010 	ldrne	r2, [r3, #16]
     c90:	1a000005 	bne	cac <elfsplitter+0x104>
     c94:	ea000009 	b	cc0 <elfsplitter+0x118>
     c98:	e593c00c 	ldr	ip, [r3, #12]
     c9c:	e061100c 	rsb	r1, r1, ip
     ca0:	e3a0c000 	mov	ip, #0
     ca4:	e781c002 	str	ip, [r1, r2]
     ca8:	e2822004 	add	r2, r2, #4
     cac:	e2831010 	add	r1, r3, #16
     cb0:	e8911002 	ldm	r1, {r1, ip}
     cb4:	e081c00c 	add	ip, r1, ip
     cb8:	e152000c 	cmp	r2, ip
     cbc:	3afffff5 	bcc	c98 <elfsplitter+0xf0>
     cc0:	e2800001 	add	r0, r0, #1
     cc4:	e1500005 	cmp	r0, r5
     cc8:	3affffcb 	bcc	bfc <elfsplitter+0x54>
     ccc:	e3a00000 	mov	r0, #0
     cd0:	e8bd81f0 	pop	{r4, r5, r6, r7, r8, pc}
     cd4:	00001c13 	.word	0x00001c13
     cd8:	00001c17 	.word	0x00001c17
     cdc:	00001c30 	.word	0x00001c30

00000ce0 <outbyte>:
     ce0:	e5902000 	ldr	r2, [r0]
     ce4:	e3520000 	cmp	r2, #0
     ce8:	14c21001 	strbne	r1, [r2], #1
     cec:	15802000 	strne	r2, [r0]
     cf0:	11a0f00e 	movne	pc, lr
     cf4:	e1a00001 	mov	r0, r1
     cf8:	ea0000e4 	b	1090 <_outbyte>

00000cfc <prints>:
     cfc:	e92d41f0 	push	{r4, r5, r6, r7, r8, lr}
     d00:	e1a04000 	mov	r4, r0
     d04:	e1a05001 	mov	r5, r1
     d08:	e2526000 	subs	r6, r2, #0
     d0c:	c3a02000 	movgt	r2, #0
     d10:	ca000001 	bgt	d1c <prints+0x20>
     d14:	ea00000a 	b	d44 <prints+0x48>
     d18:	e2822001 	add	r2, r2, #1
     d1c:	e7d51002 	ldrb	r1, [r5, r2]
     d20:	e3510000 	cmp	r1, #0
     d24:	1afffffb 	bne	d18 <prints+0x1c>
     d28:	e1520006 	cmp	r2, r6
     d2c:	b0626006 	rsblt	r6, r2, r6
     d30:	a1a06001 	movge	r6, r1
     d34:	e3130002 	tst	r3, #2
     d38:	03a08020 	moveq	r8, #32
     d3c:	13a08030 	movne	r8, #48	; 0x30
     d40:	ea000000 	b	d48 <prints+0x4c>
     d44:	e3a08020 	mov	r8, #32
     d48:	e2137001 	ands	r7, r3, #1
     d4c:	13a07000 	movne	r7, #0
     d50:	1a00000b 	bne	d84 <prints+0x88>
     d54:	ea000004 	b	d6c <prints+0x70>
     d58:	e1a00004 	mov	r0, r4
     d5c:	e1a01008 	mov	r1, r8
     d60:	ebffffde 	bl	ce0 <outbyte>
     d64:	e2877001 	add	r7, r7, #1
     d68:	e2466001 	sub	r6, r6, #1
     d6c:	e3560000 	cmp	r6, #0
     d70:	cafffff8 	bgt	d58 <prints+0x5c>
     d74:	ea000002 	b	d84 <prints+0x88>
     d78:	e1a00004 	mov	r0, r4
     d7c:	ebffffd7 	bl	ce0 <outbyte>
     d80:	e2877001 	add	r7, r7, #1
     d84:	e4d51001 	ldrb	r1, [r5], #1
     d88:	e3510000 	cmp	r1, #0
     d8c:	1afffff9 	bne	d78 <prints+0x7c>
     d90:	ea000004 	b	da8 <prints+0xac>
     d94:	e1a00004 	mov	r0, r4
     d98:	e1a01008 	mov	r1, r8
     d9c:	ebffffcf 	bl	ce0 <outbyte>
     da0:	e2877001 	add	r7, r7, #1
     da4:	e2466001 	sub	r6, r6, #1
     da8:	e3560000 	cmp	r6, #0
     dac:	cafffff8 	bgt	d94 <prints+0x98>
     db0:	e1a00007 	mov	r0, r7
     db4:	e8bd81f0 	pop	{r4, r5, r6, r7, r8, pc}

00000db8 <printi>:
     db8:	e92d4ff0 	push	{r4, r5, r6, r7, r8, r9, sl, fp, lr}
     dbc:	e24dd014 	sub	sp, sp, #20
     dc0:	e1a05000 	mov	r5, r0
     dc4:	e1a07002 	mov	r7, r2
     dc8:	e59da038 	ldr	sl, [sp, #56]	; 0x38
     dcc:	e28d403c 	add	r4, sp, #60	; 0x3c
     dd0:	e8940810 	ldm	r4, {r4, fp}
     dd4:	e2516000 	subs	r6, r1, #0
     dd8:	03a03030 	moveq	r3, #48	; 0x30
     ddc:	05cd3000 	strbeq	r3, [sp]
     de0:	05cd6001 	strbeq	r6, [sp, #1]
     de4:	01a0100d 	moveq	r1, sp
     de8:	0a00001c 	beq	e60 <printi+0xa8>
     dec:	e3a03000 	mov	r3, #0
     df0:	e5cd300f 	strb	r3, [sp, #15]
     df4:	e08d3003 	add	r3, sp, r3
     df8:	e283800e 	add	r8, r3, #14
     dfc:	e3570010 	cmp	r7, #16
     e00:	0206000f 	andeq	r0, r6, #15
     e04:	0a000004 	beq	e1c <printi+0x64>
     e08:	e1a00006 	mov	r0, r6
     e0c:	e1a01007 	mov	r1, r7
     e10:	eb0000b2 	bl	10e0 <_div>
     e14:	e0000097 	mul	r0, r7, r0
     e18:	e0600006 	rsb	r0, r0, r6
     e1c:	e3500009 	cmp	r0, #9
     e20:	c24b303a 	subgt	r3, fp, #58	; 0x3a
     e24:	c0800003 	addgt	r0, r0, r3
     e28:	e1a09008 	mov	r9, r8
     e2c:	e2800030 	add	r0, r0, #48	; 0x30
     e30:	e4480001 	strb	r0, [r8], #-1
     e34:	e3570010 	cmp	r7, #16
     e38:	01a06226 	lsreq	r6, r6, #4
     e3c:	0a000003 	beq	e50 <printi+0x98>
     e40:	e1a00006 	mov	r0, r6
     e44:	e1a01007 	mov	r1, r7
     e48:	eb0000a4 	bl	10e0 <_div>
     e4c:	e1a06000 	mov	r6, r0
     e50:	e3560000 	cmp	r6, #0
     e54:	1affffe8 	bne	dfc <printi+0x44>
     e58:	e1a00005 	mov	r0, r5
     e5c:	e1a01009 	mov	r1, r9
     e60:	e1a0200a 	mov	r2, sl
     e64:	e1a03004 	mov	r3, r4
     e68:	ebffffa3 	bl	cfc <prints>
     e6c:	e28dd014 	add	sp, sp, #20
     e70:	e8bd8ff0 	pop	{r4, r5, r6, r7, r8, r9, sl, fp, pc}

00000e74 <print>:
     e74:	e92d41f0 	push	{r4, r5, r6, r7, r8, lr}
     e78:	e24dd018 	sub	sp, sp, #24
     e7c:	e1a07000 	mov	r7, r0
     e80:	e1a05001 	mov	r5, r1
     e84:	e1a06002 	mov	r6, r2
     e88:	e3a04000 	mov	r4, #0
     e8c:	ea00005b 	b	1000 <print+0x18c>
     e90:	e3530025 	cmp	r3, #37	; 0x25
     e94:	1a00004f 	bne	fd8 <print+0x164>
     e98:	e5f53001 	ldrb	r3, [r5, #1]!
     e9c:	e3530000 	cmp	r3, #0
     ea0:	0a000059 	beq	100c <print+0x198>
     ea4:	e3530025 	cmp	r3, #37	; 0x25
     ea8:	0a00004a 	beq	fd8 <print+0x164>
     eac:	e353002d 	cmp	r3, #45	; 0x2d
     eb0:	02855001 	addeq	r5, r5, #1
     eb4:	03a03001 	moveq	r3, #1
     eb8:	13a03000 	movne	r3, #0
     ebc:	ea000000 	b	ec4 <print+0x50>
     ec0:	e3833002 	orr	r3, r3, #2
     ec4:	e1a00005 	mov	r0, r5
     ec8:	e4d52001 	ldrb	r2, [r5], #1
     ecc:	e3520030 	cmp	r2, #48	; 0x30
     ed0:	0afffffa 	beq	ec0 <print+0x4c>
     ed4:	e3a02000 	mov	r2, #0
     ed8:	ea000001 	b	ee4 <print+0x70>
     edc:	e3a0100a 	mov	r1, #10
     ee0:	e022c291 	mla	r2, r1, r2, ip
     ee4:	e1a05000 	mov	r5, r0
     ee8:	e5d01000 	ldrb	r1, [r0]
     eec:	e2800001 	add	r0, r0, #1
     ef0:	e241c030 	sub	ip, r1, #48	; 0x30
     ef4:	e20c80ff 	and	r8, ip, #255	; 0xff
     ef8:	e3580009 	cmp	r8, #9
     efc:	9afffff6 	bls	edc <print+0x68>
     f00:	e3510073 	cmp	r1, #115	; 0x73
     f04:	1a000005 	bne	f20 <print+0xac>
     f08:	e4961004 	ldr	r1, [r6], #4
     f0c:	e1a00007 	mov	r0, r7
     f10:	e59fc100 	ldr	ip, [pc, #256]	; 1018 <print+0x1a4>
     f14:	e3510000 	cmp	r1, #0
     f18:	01a0100c 	moveq	r1, ip
     f1c:	ea00002b 	b	fd0 <print+0x15c>
     f20:	e3510064 	cmp	r1, #100	; 0x64
     f24:	1a000009 	bne	f50 <print+0xdc>
     f28:	e4961004 	ldr	r1, [r6], #4
     f2c:	e88d000c 	stm	sp, {r2, r3}
     f30:	e3a03061 	mov	r3, #97	; 0x61
     f34:	e58d3008 	str	r3, [sp, #8]
     f38:	e1a00007 	mov	r0, r7
     f3c:	e3a0200a 	mov	r2, #10
     f40:	e3a03001 	mov	r3, #1
     f44:	ebffff9b 	bl	db8 <printi>
     f48:	e0844000 	add	r4, r4, r0
     f4c:	ea00002a 	b	ffc <print+0x188>
     f50:	e3510078 	cmp	r1, #120	; 0x78
     f54:	04961004 	ldreq	r1, [r6], #4
     f58:	088d000c 	stmeq	sp, {r2, r3}
     f5c:	03a03061 	moveq	r3, #97	; 0x61
     f60:	0a000004 	beq	f78 <print+0x104>
     f64:	e3510058 	cmp	r1, #88	; 0x58
     f68:	1a000006 	bne	f88 <print+0x114>
     f6c:	e4961004 	ldr	r1, [r6], #4
     f70:	e88d000c 	stm	sp, {r2, r3}
     f74:	e3a03041 	mov	r3, #65	; 0x41
     f78:	e58d3008 	str	r3, [sp, #8]
     f7c:	e1a00007 	mov	r0, r7
     f80:	e3a02010 	mov	r2, #16
     f84:	ea000007 	b	fa8 <print+0x134>
     f88:	e3510075 	cmp	r1, #117	; 0x75
     f8c:	1a000007 	bne	fb0 <print+0x13c>
     f90:	e4961004 	ldr	r1, [r6], #4
     f94:	e88d000c 	stm	sp, {r2, r3}
     f98:	e3a03061 	mov	r3, #97	; 0x61
     f9c:	e58d3008 	str	r3, [sp, #8]
     fa0:	e1a00007 	mov	r0, r7
     fa4:	e3a0200a 	mov	r2, #10
     fa8:	e3a03000 	mov	r3, #0
     fac:	eaffffe4 	b	f44 <print+0xd0>
     fb0:	e3510063 	cmp	r1, #99	; 0x63
     fb4:	1a000010 	bne	ffc <print+0x188>
     fb8:	e4961004 	ldr	r1, [r6], #4
     fbc:	e5cd1014 	strb	r1, [sp, #20]
     fc0:	e3a01000 	mov	r1, #0
     fc4:	e5cd1015 	strb	r1, [sp, #21]
     fc8:	e1a00007 	mov	r0, r7
     fcc:	e28d1014 	add	r1, sp, #20
     fd0:	ebffff49 	bl	cfc <prints>
     fd4:	eaffffdb 	b	f48 <print+0xd4>
     fd8:	e5d53000 	ldrb	r3, [r5]
     fdc:	e353000a 	cmp	r3, #10
     fe0:	01a00007 	moveq	r0, r7
     fe4:	03a0100d 	moveq	r1, #13
     fe8:	0bffff3c 	bleq	ce0 <outbyte>
     fec:	e1a00007 	mov	r0, r7
     ff0:	e5d51000 	ldrb	r1, [r5]
     ff4:	ebffff39 	bl	ce0 <outbyte>
     ff8:	e2844001 	add	r4, r4, #1
     ffc:	e2855001 	add	r5, r5, #1
    1000:	e5d53000 	ldrb	r3, [r5]
    1004:	e3530000 	cmp	r3, #0
    1008:	1affffa0 	bne	e90 <print+0x1c>
    100c:	e1a00004 	mov	r0, r4
    1010:	e28dd018 	add	sp, sp, #24
    1014:	e8bd81f0 	pop	{r4, r5, r6, r7, r8, pc}
    1018:	00001c67 	.word	0x00001c67

0000101c <printf>:
    101c:	e92d000f 	push	{r0, r1, r2, r3}
    1020:	e92d4007 	push	{r0, r1, r2, lr}
    1024:	e28d0008 	add	r0, sp, #8
    1028:	e3a03000 	mov	r3, #0
    102c:	e5203004 	str	r3, [r0, #-4]!
    1030:	e59d1010 	ldr	r1, [sp, #16]
    1034:	e28d2014 	add	r2, sp, #20
    1038:	ebffff8d 	bl	e74 <print>
    103c:	e8bd400e 	pop	{r1, r2, r3, lr}
    1040:	e28dd010 	add	sp, sp, #16
    1044:	e1a0f00e 	mov	pc, lr

00001048 <sprintf>:
    1048:	e92d000e 	push	{r1, r2, r3}
    104c:	e92d4003 	push	{r0, r1, lr}
    1050:	e28d3008 	add	r3, sp, #8
    1054:	e5230004 	str	r0, [r3, #-4]!
    1058:	e1a00003 	mov	r0, r3
    105c:	e59d100c 	ldr	r1, [sp, #12]
    1060:	e28d2010 	add	r2, sp, #16
    1064:	ebffff82 	bl	e74 <print>
    1068:	e8bd400c 	pop	{r2, r3, lr}
    106c:	e28dd00c 	add	sp, sp, #12
    1070:	e1a0f00e 	mov	pc, lr

00001074 <_testfail>:
    1074:	e59fb13c 	ldr	fp, [pc, #316]	; 11b8 <AdrTestStatus>
    1078:	e58b0000 	str	r0, [fp]
    107c:	eafffffc 	b	1074 <_testfail>

00001080 <_testpass>:
    1080:	e59fb130 	ldr	fp, [pc, #304]	; 11b8 <AdrTestStatus>
    1084:	e3a0a011 	mov	sl, #17
    1088:	e58ba000 	str	sl, [fp]
    108c:	eafffffb 	b	1080 <_testpass>

00001090 <_outbyte>:
    1090:	e59f1124 	ldr	r1, [pc, #292]	; 11bc <AdrUARTDR>
    1094:	e59f3124 	ldr	r3, [pc, #292]	; 11c0 <AdrUARTFR>
    1098:	e5932000 	ldr	r2, [r3]
    109c:	e2022020 	and	r2, r2, #32
    10a0:	e3520000 	cmp	r2, #0
    10a4:	05c10000 	strbeq	r0, [r1]
    10a8:	01b0f00e 	movseq	pc, lr
    10ac:	1afffff9 	bne	1098 <_outbyte+0x8>

000010b0 <_inbyte>:
    10b0:	e59f2104 	ldr	r2, [pc, #260]	; 11bc <AdrUARTDR>
    10b4:	e59f3104 	ldr	r3, [pc, #260]	; 11c0 <AdrUARTFR>
    10b8:	e1a01580 	lsl	r1, r0, #11
    10bc:	e0811480 	add	r1, r1, r0, lsl #9
    10c0:	e5930000 	ldr	r0, [r3]
    10c4:	e2100010 	ands	r0, r0, #16
    10c8:	05d20000 	ldrbeq	r0, [r2]
    10cc:	01a0f00e 	moveq	pc, lr
    10d0:	e2511001 	subs	r1, r1, #1
    10d4:	1afffff9 	bne	10c0 <_inbyte+0x10>
    10d8:	e3e00000 	mvn	r0, #0
    10dc:	e1b0f00e 	movs	pc, lr

000010e0 <_div>:
    10e0:	e92d4010 	push	{r4, lr}
    10e4:	e1a02001 	mov	r2, r1
    10e8:	e1a01000 	mov	r1, r0
    10ec:	e3520000 	cmp	r2, #0
    10f0:	0a00000e 	beq	1130 <_div+0x50>
    10f4:	e3a00000 	mov	r0, #0
    10f8:	e3a03001 	mov	r3, #1
    10fc:	e3530000 	cmp	r3, #0
    1100:	03a03201 	moveq	r3, #268435456	; 0x10000000
    1104:	0a000003 	beq	1118 <_div+0x38>
    1108:	e1520001 	cmp	r2, r1
    110c:	91a02082 	lslls	r2, r2, #1
    1110:	91a03083 	lslls	r3, r3, #1
    1114:	9afffff8 	bls	10fc <_div+0x1c>
    1118:	e1510002 	cmp	r1, r2
    111c:	20411002 	subcs	r1, r1, r2
    1120:	20800003 	addcs	r0, r0, r3
    1124:	e1b030a3 	lsrs	r3, r3, #1
    1128:	31a020a2 	lsrcc	r2, r2, #1
    112c:	3afffff9 	bcc	1118 <_div+0x38>
    1130:	e8fd8010 	ldm	sp!, {r4, pc}^

00001134 <strcpy>:
    1134:	e4d13001 	ldrb	r3, [r1], #1
    1138:	e3530000 	cmp	r3, #0
    113c:	0a000001 	beq	1148 <strcpy+0x14>
    1140:	e4c03001 	strb	r3, [r0], #1
    1144:	eafffffa 	b	1134 <strcpy>
    1148:	01b0f00e 	movseq	pc, lr

0000114c <strncpy>:
    114c:	e92d4010 	push	{r4, lr}
    1150:	e3520000 	cmp	r2, #0
    1154:	0a000006 	beq	1174 <strncpy+0x28>
    1158:	e3a04000 	mov	r4, #0
    115c:	e4d13001 	ldrb	r3, [r1], #1
    1160:	e4c03001 	strb	r3, [r0], #1
    1164:	e2844001 	add	r4, r4, #1
    1168:	e1520004 	cmp	r2, r4
    116c:	0a000000 	beq	1174 <strncpy+0x28>
    1170:	eafffff9 	b	115c <strncpy+0x10>
    1174:	e8fd8010 	ldm	sp!, {r4, pc}^

00001178 <strncmp>:
    1178:	e92d4070 	push	{r4, r5, r6, lr}
    117c:	e3520000 	cmp	r2, #0
    1180:	03a00001 	moveq	r0, #1
    1184:	0a00000a 	beq	11b4 <strncmp+0x3c>
    1188:	e3a03000 	mov	r3, #0
    118c:	e2833001 	add	r3, r3, #1
    1190:	e4d04001 	ldrb	r4, [r0], #1
    1194:	e4d15001 	ldrb	r5, [r1], #1
    1198:	e0546005 	subs	r6, r4, r5
    119c:	11a00006 	movne	r0, r6
    11a0:	1a000003 	bne	11b4 <strncmp+0x3c>
    11a4:	e1530002 	cmp	r3, r2
    11a8:	03a00000 	moveq	r0, #0
    11ac:	0a000000 	beq	11b4 <strncmp+0x3c>
    11b0:	eafffff5 	b	118c <strncmp+0x14>
    11b4:	e8fd8070 	ldm	sp!, {r4, r5, r6, pc}^

000011b8 <AdrTestStatus>:
    11b8:	f0000000 	.word	0xf0000000

000011bc <AdrUARTDR>:
    11bc:	16000000 	.word	0x16000000

000011c0 <AdrUARTFR>:
    11c0:	16000018 	.word	0x16000018

000011c4 <memcpy>:
    11c4:	e92d05f0 	push	{r4, r5, r6, r7, r8, sl}
    11c8:	e1a04000 	mov	r4, r0
    11cc:	e1a0c001 	mov	ip, r1
    11d0:	e3520007 	cmp	r2, #7
    11d4:	9a000004 	bls	11ec <memcpy+0x28>
    11d8:	e1a03000 	mov	r3, r0
    11dc:	e3100003 	tst	r0, #3
    11e0:	11a03000 	movne	r3, r0
    11e4:	1a00001c 	bne	125c <memcpy+0x98>
    11e8:	ea000022 	b	1278 <memcpy+0xb4>
    11ec:	e2422001 	sub	r2, r2, #1
    11f0:	e3520006 	cmp	r2, #6
    11f4:	979ff102 	ldrls	pc, [pc, r2, lsl #2]
    11f8:	ea000184 	b	1810 <memcpy+0x64c>
    11fc:	00001250 	.word	0x00001250
    1200:	00001248 	.word	0x00001248
    1204:	00001240 	.word	0x00001240
    1208:	00001238 	.word	0x00001238
    120c:	00001230 	.word	0x00001230
    1210:	00001228 	.word	0x00001228
    1214:	00001218 	.word	0x00001218
    1218:	e1a0c001 	mov	ip, r1
    121c:	e4dc3001 	ldrb	r3, [ip], #1
    1220:	e1a04000 	mov	r4, r0
    1224:	e4c43001 	strb	r3, [r4], #1
    1228:	e4dc3001 	ldrb	r3, [ip], #1
    122c:	e4c43001 	strb	r3, [r4], #1
    1230:	e4dc3001 	ldrb	r3, [ip], #1
    1234:	e4c43001 	strb	r3, [r4], #1
    1238:	e4dc3001 	ldrb	r3, [ip], #1
    123c:	e4c43001 	strb	r3, [r4], #1
    1240:	e4dc3001 	ldrb	r3, [ip], #1
    1244:	e4c43001 	strb	r3, [r4], #1
    1248:	e4dc3001 	ldrb	r3, [ip], #1
    124c:	e4c43001 	strb	r3, [r4], #1
    1250:	e5dc3000 	ldrb	r3, [ip]
    1254:	e5c43000 	strb	r3, [r4]
    1258:	ea00016c 	b	1810 <memcpy+0x64c>
    125c:	e4d1c001 	ldrb	ip, [r1], #1
    1260:	e4c3c001 	strb	ip, [r3], #1
    1264:	e1a04003 	mov	r4, r3
    1268:	e1a0c001 	mov	ip, r1
    126c:	e2422001 	sub	r2, r2, #1
    1270:	e3130003 	tst	r3, #3
    1274:	1afffff8 	bne	125c <memcpy+0x98>
    1278:	e1a0100c 	mov	r1, ip
    127c:	e20c5003 	and	r5, ip, #3
    1280:	e3550003 	cmp	r5, #3
    1284:	979ff105 	ldrls	pc, [pc, r5, lsl #2]
    1288:	ea000160 	b	1810 <memcpy+0x64c>
    128c:	0000129c 	.word	0x0000129c
    1290:	000013b4 	.word	0x000013b4
    1294:	00001528 	.word	0x00001528
    1298:	0000169c 	.word	0x0000169c
    129c:	e1a06004 	mov	r6, r4
    12a0:	e1a03122 	lsr	r3, r2, #2
    12a4:	e3130007 	tst	r3, #7
    12a8:	0a000006 	beq	12c8 <memcpy+0x104>
    12ac:	e491c004 	ldr	ip, [r1], #4
    12b0:	e484c004 	str	ip, [r4], #4
    12b4:	e1a06004 	mov	r6, r4
    12b8:	e1a0c001 	mov	ip, r1
    12bc:	e2433001 	sub	r3, r3, #1
    12c0:	e3130007 	tst	r3, #7
    12c4:	1afffff8 	bne	12ac <memcpy+0xe8>
    12c8:	e1b071a3 	lsrs	r7, r3, #3
    12cc:	0a000019 	beq	1338 <memcpy+0x174>
    12d0:	e1a04007 	mov	r4, r7
    12d4:	e1a0100c 	mov	r1, ip
    12d8:	e1a03006 	mov	r3, r6
    12dc:	e5915000 	ldr	r5, [r1]
    12e0:	e5835000 	str	r5, [r3]
    12e4:	e5915004 	ldr	r5, [r1, #4]
    12e8:	e5835004 	str	r5, [r3, #4]
    12ec:	e5915008 	ldr	r5, [r1, #8]
    12f0:	e5835008 	str	r5, [r3, #8]
    12f4:	e591500c 	ldr	r5, [r1, #12]
    12f8:	e583500c 	str	r5, [r3, #12]
    12fc:	e5915010 	ldr	r5, [r1, #16]
    1300:	e5835010 	str	r5, [r3, #16]
    1304:	e5915014 	ldr	r5, [r1, #20]
    1308:	e5835014 	str	r5, [r3, #20]
    130c:	e5915018 	ldr	r5, [r1, #24]
    1310:	e5835018 	str	r5, [r3, #24]
    1314:	e591501c 	ldr	r5, [r1, #28]
    1318:	e583501c 	str	r5, [r3, #28]
    131c:	e2833020 	add	r3, r3, #32
    1320:	e2811020 	add	r1, r1, #32
    1324:	e2544001 	subs	r4, r4, #1
    1328:	1affffeb 	bne	12dc <memcpy+0x118>
    132c:	e1a07287 	lsl	r7, r7, #5
    1330:	e0866007 	add	r6, r6, r7
    1334:	e08cc007 	add	ip, ip, r7
    1338:	e1a0100c 	mov	r1, ip
    133c:	e1a03006 	mov	r3, r6
    1340:	e2022003 	and	r2, r2, #3
    1344:	e2422001 	sub	r2, r2, #1
    1348:	e3520006 	cmp	r2, #6
    134c:	979ff102 	ldrls	pc, [pc, r2, lsl #2]
    1350:	ea00012e 	b	1810 <memcpy+0x64c>
    1354:	000013a8 	.word	0x000013a8
    1358:	000013a0 	.word	0x000013a0
    135c:	00001398 	.word	0x00001398
    1360:	00001390 	.word	0x00001390
    1364:	00001388 	.word	0x00001388
    1368:	00001380 	.word	0x00001380
    136c:	00001370 	.word	0x00001370
    1370:	e1a0100c 	mov	r1, ip
    1374:	e4d12001 	ldrb	r2, [r1], #1
    1378:	e1a03006 	mov	r3, r6
    137c:	e4c32001 	strb	r2, [r3], #1
    1380:	e4d12001 	ldrb	r2, [r1], #1
    1384:	e4c32001 	strb	r2, [r3], #1
    1388:	e4d12001 	ldrb	r2, [r1], #1
    138c:	e4c32001 	strb	r2, [r3], #1
    1390:	e4d12001 	ldrb	r2, [r1], #1
    1394:	e4c32001 	strb	r2, [r3], #1
    1398:	e4d12001 	ldrb	r2, [r1], #1
    139c:	e4c32001 	strb	r2, [r3], #1
    13a0:	e4d12001 	ldrb	r2, [r1], #1
    13a4:	e4c32001 	strb	r2, [r3], #1
    13a8:	e5d12000 	ldrb	r2, [r1]
    13ac:	e5c32000 	strb	r2, [r3]
    13b0:	ea000116 	b	1810 <memcpy+0x64c>
    13b4:	e3c33003 	bic	r3, r3, #3
    13b8:	e1a06003 	mov	r6, r3
    13bc:	e3ccc003 	bic	ip, ip, #3
    13c0:	e1a01122 	lsr	r1, r2, #2
    13c4:	e1a0700c 	mov	r7, ip
    13c8:	e4974004 	ldr	r4, [r7], #4
    13cc:	e3110007 	tst	r1, #7
    13d0:	0a000009 	beq	13fc <memcpy+0x238>
    13d4:	e28cc004 	add	ip, ip, #4
    13d8:	e1a05424 	lsr	r5, r4, #8
    13dc:	e49c4004 	ldr	r4, [ip], #4
    13e0:	e1a0700c 	mov	r7, ip
    13e4:	e1855c04 	orr	r5, r5, r4, lsl #24
    13e8:	e4835004 	str	r5, [r3], #4
    13ec:	e1a06003 	mov	r6, r3
    13f0:	e2411001 	sub	r1, r1, #1
    13f4:	e3110007 	tst	r1, #7
    13f8:	1afffff6 	bne	13d8 <memcpy+0x214>
    13fc:	e1b081a1 	lsrs	r8, r1, #3
    1400:	0a000029 	beq	14ac <memcpy+0x2e8>
    1404:	e1a0c008 	mov	ip, r8
    1408:	e1a01007 	mov	r1, r7
    140c:	e1a03006 	mov	r3, r6
    1410:	e5915000 	ldr	r5, [r1]
    1414:	e1a0ac05 	lsl	sl, r5, #24
    1418:	e18a4424 	orr	r4, sl, r4, lsr #8
    141c:	e5834000 	str	r4, [r3]
    1420:	e5914004 	ldr	r4, [r1, #4]
    1424:	e1a0ac04 	lsl	sl, r4, #24
    1428:	e18a5425 	orr	r5, sl, r5, lsr #8
    142c:	e5835004 	str	r5, [r3, #4]
    1430:	e5915008 	ldr	r5, [r1, #8]
    1434:	e1a0ac05 	lsl	sl, r5, #24
    1438:	e18a4424 	orr	r4, sl, r4, lsr #8
    143c:	e5834008 	str	r4, [r3, #8]
    1440:	e591400c 	ldr	r4, [r1, #12]
    1444:	e1a0ac04 	lsl	sl, r4, #24
    1448:	e18a5425 	orr	r5, sl, r5, lsr #8
    144c:	e583500c 	str	r5, [r3, #12]
    1450:	e5915010 	ldr	r5, [r1, #16]
    1454:	e1a0ac05 	lsl	sl, r5, #24
    1458:	e18a4424 	orr	r4, sl, r4, lsr #8
    145c:	e5834010 	str	r4, [r3, #16]
    1460:	e5914014 	ldr	r4, [r1, #20]
    1464:	e1a0ac04 	lsl	sl, r4, #24
    1468:	e18a5425 	orr	r5, sl, r5, lsr #8
    146c:	e5835014 	str	r5, [r3, #20]
    1470:	e5915018 	ldr	r5, [r1, #24]
    1474:	e1a0ac05 	lsl	sl, r5, #24
    1478:	e18a4424 	orr	r4, sl, r4, lsr #8
    147c:	e5834018 	str	r4, [r3, #24]
    1480:	e591401c 	ldr	r4, [r1, #28]
    1484:	e1a0ac04 	lsl	sl, r4, #24
    1488:	e18a5425 	orr	r5, sl, r5, lsr #8
    148c:	e583501c 	str	r5, [r3, #28]
    1490:	e2833020 	add	r3, r3, #32
    1494:	e2811020 	add	r1, r1, #32
    1498:	e25cc001 	subs	ip, ip, #1
    149c:	1affffdb 	bne	1410 <memcpy+0x24c>
    14a0:	e1a08288 	lsl	r8, r8, #5
    14a4:	e0866008 	add	r6, r6, r8
    14a8:	e0877008 	add	r7, r7, r8
    14ac:	e2471003 	sub	r1, r7, #3
    14b0:	e1a03006 	mov	r3, r6
    14b4:	e2022003 	and	r2, r2, #3
    14b8:	e2422001 	sub	r2, r2, #1
    14bc:	e3520006 	cmp	r2, #6
    14c0:	979ff102 	ldrls	pc, [pc, r2, lsl #2]
    14c4:	ea0000d1 	b	1810 <memcpy+0x64c>
    14c8:	0000151c 	.word	0x0000151c
    14cc:	00001514 	.word	0x00001514
    14d0:	0000150c 	.word	0x0000150c
    14d4:	00001504 	.word	0x00001504
    14d8:	000014fc 	.word	0x000014fc
    14dc:	000014f4 	.word	0x000014f4
    14e0:	000014e4 	.word	0x000014e4
    14e4:	e5572003 	ldrb	r2, [r7, #-3]
    14e8:	e1a03006 	mov	r3, r6
    14ec:	e4c32001 	strb	r2, [r3], #1
    14f0:	e2811001 	add	r1, r1, #1
    14f4:	e4d12001 	ldrb	r2, [r1], #1
    14f8:	e4c32001 	strb	r2, [r3], #1
    14fc:	e4d12001 	ldrb	r2, [r1], #1
    1500:	e4c32001 	strb	r2, [r3], #1
    1504:	e4d12001 	ldrb	r2, [r1], #1
    1508:	e4c32001 	strb	r2, [r3], #1
    150c:	e4d12001 	ldrb	r2, [r1], #1
    1510:	e4c32001 	strb	r2, [r3], #1
    1514:	e4d12001 	ldrb	r2, [r1], #1
    1518:	e4c32001 	strb	r2, [r3], #1
    151c:	e5d12000 	ldrb	r2, [r1]
    1520:	e5c32000 	strb	r2, [r3]
    1524:	ea0000b9 	b	1810 <memcpy+0x64c>
    1528:	e3c33003 	bic	r3, r3, #3
    152c:	e1a06003 	mov	r6, r3
    1530:	e3ccc003 	bic	ip, ip, #3
    1534:	e1a01122 	lsr	r1, r2, #2
    1538:	e1a0700c 	mov	r7, ip
    153c:	e4974004 	ldr	r4, [r7], #4
    1540:	e3110007 	tst	r1, #7
    1544:	0a000009 	beq	1570 <memcpy+0x3ac>
    1548:	e28cc004 	add	ip, ip, #4
    154c:	e1a05824 	lsr	r5, r4, #16
    1550:	e49c4004 	ldr	r4, [ip], #4
    1554:	e1a0700c 	mov	r7, ip
    1558:	e1855804 	orr	r5, r5, r4, lsl #16
    155c:	e4835004 	str	r5, [r3], #4
    1560:	e1a06003 	mov	r6, r3
    1564:	e2411001 	sub	r1, r1, #1
    1568:	e3110007 	tst	r1, #7
    156c:	1afffff6 	bne	154c <memcpy+0x388>
    1570:	e1b081a1 	lsrs	r8, r1, #3
    1574:	0a000029 	beq	1620 <memcpy+0x45c>
    1578:	e1a0c008 	mov	ip, r8
    157c:	e1a01007 	mov	r1, r7
    1580:	e1a03006 	mov	r3, r6
    1584:	e5915000 	ldr	r5, [r1]
    1588:	e1a0a805 	lsl	sl, r5, #16
    158c:	e18a4824 	orr	r4, sl, r4, lsr #16
    1590:	e5834000 	str	r4, [r3]
    1594:	e5914004 	ldr	r4, [r1, #4]
    1598:	e1a0a804 	lsl	sl, r4, #16
    159c:	e18a5825 	orr	r5, sl, r5, lsr #16
    15a0:	e5835004 	str	r5, [r3, #4]
    15a4:	e5915008 	ldr	r5, [r1, #8]
    15a8:	e1a0a805 	lsl	sl, r5, #16
    15ac:	e18a4824 	orr	r4, sl, r4, lsr #16
    15b0:	e5834008 	str	r4, [r3, #8]
    15b4:	e591400c 	ldr	r4, [r1, #12]
    15b8:	e1a0a804 	lsl	sl, r4, #16
    15bc:	e18a5825 	orr	r5, sl, r5, lsr #16
    15c0:	e583500c 	str	r5, [r3, #12]
    15c4:	e5915010 	ldr	r5, [r1, #16]
    15c8:	e1a0a805 	lsl	sl, r5, #16
    15cc:	e18a4824 	orr	r4, sl, r4, lsr #16
    15d0:	e5834010 	str	r4, [r3, #16]
    15d4:	e5914014 	ldr	r4, [r1, #20]
    15d8:	e1a0a804 	lsl	sl, r4, #16
    15dc:	e18a5825 	orr	r5, sl, r5, lsr #16
    15e0:	e5835014 	str	r5, [r3, #20]
    15e4:	e5915018 	ldr	r5, [r1, #24]
    15e8:	e1a0a805 	lsl	sl, r5, #16
    15ec:	e18a4824 	orr	r4, sl, r4, lsr #16
    15f0:	e5834018 	str	r4, [r3, #24]
    15f4:	e591401c 	ldr	r4, [r1, #28]
    15f8:	e1a0a804 	lsl	sl, r4, #16
    15fc:	e18a5825 	orr	r5, sl, r5, lsr #16
    1600:	e583501c 	str	r5, [r3, #28]
    1604:	e2833020 	add	r3, r3, #32
    1608:	e2811020 	add	r1, r1, #32
    160c:	e25cc001 	subs	ip, ip, #1
    1610:	1affffdb 	bne	1584 <memcpy+0x3c0>
    1614:	e1a08288 	lsl	r8, r8, #5
    1618:	e0866008 	add	r6, r6, r8
    161c:	e0877008 	add	r7, r7, r8
    1620:	e2471002 	sub	r1, r7, #2
    1624:	e1a03006 	mov	r3, r6
    1628:	e2022003 	and	r2, r2, #3
    162c:	e2422001 	sub	r2, r2, #1
    1630:	e3520006 	cmp	r2, #6
    1634:	979ff102 	ldrls	pc, [pc, r2, lsl #2]
    1638:	ea000074 	b	1810 <memcpy+0x64c>
    163c:	00001690 	.word	0x00001690
    1640:	00001688 	.word	0x00001688
    1644:	00001680 	.word	0x00001680
    1648:	00001678 	.word	0x00001678
    164c:	00001670 	.word	0x00001670
    1650:	00001668 	.word	0x00001668
    1654:	00001658 	.word	0x00001658
    1658:	e5572002 	ldrb	r2, [r7, #-2]
    165c:	e1a03006 	mov	r3, r6
    1660:	e4c32001 	strb	r2, [r3], #1
    1664:	e2811001 	add	r1, r1, #1
    1668:	e4d12001 	ldrb	r2, [r1], #1
    166c:	e4c32001 	strb	r2, [r3], #1
    1670:	e4d12001 	ldrb	r2, [r1], #1
    1674:	e4c32001 	strb	r2, [r3], #1
    1678:	e4d12001 	ldrb	r2, [r1], #1
    167c:	e4c32001 	strb	r2, [r3], #1
    1680:	e4d12001 	ldrb	r2, [r1], #1
    1684:	e4c32001 	strb	r2, [r3], #1
    1688:	e4d12001 	ldrb	r2, [r1], #1
    168c:	e4c32001 	strb	r2, [r3], #1
    1690:	e5d12000 	ldrb	r2, [r1]
    1694:	e5c32000 	strb	r2, [r3]
    1698:	ea00005c 	b	1810 <memcpy+0x64c>
    169c:	e3c33003 	bic	r3, r3, #3
    16a0:	e1a06003 	mov	r6, r3
    16a4:	e3ccc003 	bic	ip, ip, #3
    16a8:	e1a01122 	lsr	r1, r2, #2
    16ac:	e1a0700c 	mov	r7, ip
    16b0:	e4974004 	ldr	r4, [r7], #4
    16b4:	e3110007 	tst	r1, #7
    16b8:	0a000009 	beq	16e4 <memcpy+0x520>
    16bc:	e28cc004 	add	ip, ip, #4
    16c0:	e1a05c24 	lsr	r5, r4, #24
    16c4:	e49c4004 	ldr	r4, [ip], #4
    16c8:	e1a0700c 	mov	r7, ip
    16cc:	e1855404 	orr	r5, r5, r4, lsl #8
    16d0:	e4835004 	str	r5, [r3], #4
    16d4:	e1a06003 	mov	r6, r3
    16d8:	e2411001 	sub	r1, r1, #1
    16dc:	e3110007 	tst	r1, #7
    16e0:	1afffff6 	bne	16c0 <memcpy+0x4fc>
    16e4:	e1b081a1 	lsrs	r8, r1, #3
    16e8:	0a000029 	beq	1794 <memcpy+0x5d0>
    16ec:	e1a0c008 	mov	ip, r8
    16f0:	e1a01007 	mov	r1, r7
    16f4:	e1a03006 	mov	r3, r6
    16f8:	e5915000 	ldr	r5, [r1]
    16fc:	e1a0a405 	lsl	sl, r5, #8
    1700:	e18a4c24 	orr	r4, sl, r4, lsr #24
    1704:	e5834000 	str	r4, [r3]
    1708:	e5914004 	ldr	r4, [r1, #4]
    170c:	e1a0a404 	lsl	sl, r4, #8
    1710:	e18a5c25 	orr	r5, sl, r5, lsr #24
    1714:	e5835004 	str	r5, [r3, #4]
    1718:	e5915008 	ldr	r5, [r1, #8]
    171c:	e1a0a405 	lsl	sl, r5, #8
    1720:	e18a4c24 	orr	r4, sl, r4, lsr #24
    1724:	e5834008 	str	r4, [r3, #8]
    1728:	e591400c 	ldr	r4, [r1, #12]
    172c:	e1a0a404 	lsl	sl, r4, #8
    1730:	e18a5c25 	orr	r5, sl, r5, lsr #24
    1734:	e583500c 	str	r5, [r3, #12]
    1738:	e5915010 	ldr	r5, [r1, #16]
    173c:	e1a0a405 	lsl	sl, r5, #8
    1740:	e18a4c24 	orr	r4, sl, r4, lsr #24
    1744:	e5834010 	str	r4, [r3, #16]
    1748:	e5914014 	ldr	r4, [r1, #20]
    174c:	e1a0a404 	lsl	sl, r4, #8
    1750:	e18a5c25 	orr	r5, sl, r5, lsr #24
    1754:	e5835014 	str	r5, [r3, #20]
    1758:	e5915018 	ldr	r5, [r1, #24]
    175c:	e1a0a405 	lsl	sl, r5, #8
    1760:	e18a4c24 	orr	r4, sl, r4, lsr #24
    1764:	e5834018 	str	r4, [r3, #24]
    1768:	e591401c 	ldr	r4, [r1, #28]
    176c:	e1a0a404 	lsl	sl, r4, #8
    1770:	e18a5c25 	orr	r5, sl, r5, lsr #24
    1774:	e583501c 	str	r5, [r3, #28]
    1778:	e2833020 	add	r3, r3, #32
    177c:	e2811020 	add	r1, r1, #32
    1780:	e25cc001 	subs	ip, ip, #1
    1784:	1affffdb 	bne	16f8 <memcpy+0x534>
    1788:	e1a08288 	lsl	r8, r8, #5
    178c:	e0866008 	add	r6, r6, r8
    1790:	e0877008 	add	r7, r7, r8
    1794:	e2471001 	sub	r1, r7, #1
    1798:	e1a03006 	mov	r3, r6
    179c:	e2022003 	and	r2, r2, #3
    17a0:	e2422001 	sub	r2, r2, #1
    17a4:	e3520006 	cmp	r2, #6
    17a8:	979ff102 	ldrls	pc, [pc, r2, lsl #2]
    17ac:	ea000017 	b	1810 <memcpy+0x64c>
    17b0:	00001804 	.word	0x00001804
    17b4:	000017fc 	.word	0x000017fc
    17b8:	000017f4 	.word	0x000017f4
    17bc:	000017ec 	.word	0x000017ec
    17c0:	000017e4 	.word	0x000017e4
    17c4:	000017dc 	.word	0x000017dc
    17c8:	000017cc 	.word	0x000017cc
    17cc:	e5572001 	ldrb	r2, [r7, #-1]
    17d0:	e1a03006 	mov	r3, r6
    17d4:	e4c32001 	strb	r2, [r3], #1
    17d8:	e1a01007 	mov	r1, r7
    17dc:	e4d12001 	ldrb	r2, [r1], #1
    17e0:	e4c32001 	strb	r2, [r3], #1
    17e4:	e4d12001 	ldrb	r2, [r1], #1
    17e8:	e4c32001 	strb	r2, [r3], #1
    17ec:	e4d12001 	ldrb	r2, [r1], #1
    17f0:	e4c32001 	strb	r2, [r3], #1
    17f4:	e4d12001 	ldrb	r2, [r1], #1
    17f8:	e4c32001 	strb	r2, [r3], #1
    17fc:	e4d12001 	ldrb	r2, [r1], #1
    1800:	e4c32001 	strb	r2, [r3], #1
    1804:	e5d12000 	ldrb	r2, [r1]
    1808:	e5c32000 	strb	r2, [r3]
    180c:	eaffffff 	b	1810 <memcpy+0x64c>
    1810:	e8bd05f0 	pop	{r4, r5, r6, r7, r8, sl}
    1814:	e1a0f00e 	mov	pc, lr

00001818 <raise>:
    1818:	e1a0f00e 	mov	pc, lr
